
Allocating common symbols
Common symbol       size              file

clflush_size        0x4               output.o
sReaderContext      0x60              output.o
uefi_memory_map_data
                    0x4000            output.o
current_iphdr_src   0x4               output.o
uefi_booted         0x4               output.o
sigx_app            0x8               output.o
tcp_tw_pcbs         0x8               output.o
tcp_ticks           0x4               output.o
num_dom             0x4               output.o
mszReaders          0x400             output.o
udp_pcbs            0x8               output.o
prohibit_iccard_init
                    0x4               output.o
tcp_tmp_pcb         0x8               output.o
tcp_listen_pcbs     0x8               output.o
pci_config_mmio_data_head
                    0x8               output.o
netif_default       0x8               output.o
tcp_active_pcbs     0x8               output.o
curthread           0x8               output.o
current_netif       0x8               output.o
tcp_bound_pcbs      0x8               output.o
ram_heap            0x100001c         output.o
sig_app             0x8               output.o
readerState         0x64              output.o
dom_io              0x800             output.o
acpi_dsdt_system_state
                    0x1e              output.o
current_header      0x8               output.o
ehci_host           0x8               output.o
tcp_active_pcbs_changed
                    0x1               output.o
tcp_input_pcb       0x8               output.o
num_of_processors   0x4               output.o
pbuf_free_ooseq_pending
                    0x1               output.o
e801_fake_bx        0x2               output.o
dhcp_rx_options_val
                    0x28              output.o
dhcp_rx_options_given
                    0xa               output.o
iommu_detected      0x1               output.o
uefi_mmio_space     0x8               output.o
dwReaders           0x8               output.o
current_iphdr_dest  0x4               output.o
readerTracker       0x140             output.o
handler_descriptor_lock
                    0x1               output.o
e801_fake_ax        0x2               output.o
netif_list          0x8               output.o

Discarded input sections

 .gomi          0x0000000000000000       0x10 output.o

Memory Configuration

Name             Origin             Length             Attributes
*default*        0x0000000000000000 0xffffffffffffffff

Linker script and memory map

                0x0000000040100000                virt = 0x40100000
                0x0000000000100000                phys = 0x100000
                0x0000000040100000                . = virt
                0x0000000040100000                head = .
                0x00000000401000b0                . = (virt + SIZEOF_HEADERS)

.entry          0x0000000040101000     0x6600 load address 0x0000000000101000
                0x0000000040101000                code = .
 *(.entry)
 .entry         0x0000000040101000     0x6000 output.o
                0x000000004010100c                entry
                0x0000000040101338                uefi_entry_virttophys
                0x0000000040101343                uefi_entry_call
                0x0000000040101383                uefi_entry_pcpy
                0x00000000401013c2                uefi_entry_start
                0x00000000401014d9                uefi_entry_rsp
                0x00000000401014e1                uefi_entry_ret_addr
                0x0000000040101580                cpuinit_start
                0x00000000401017b0                vmm_base_cr3
                0x00000000401017c8                apinit_procs
                0x00000000401017d0                apinit_lock
                0x00000000401017d8                cpuinit_end
                0x0000000040103000                entry_pdp
                0x0000000040104000                entry_pd0
                0x0000000040105000                entry_pd
 *(.entry.text)
 .entry.text    0x0000000040107000      0x517 output.o
                0x0000000040107000                uefi_init_get_vmmsize
                0x00000000401070a2                uefi_init
 *(.entry.data)
 *fill*         0x0000000040107517        0x9 
 .entry.data    0x0000000040107520       0xe0 output.o
                0x0000000040107588                uefi_acpi_table
                0x0000000040107590                uefi_acpi_20_table
                0x0000000040107598                uefi_wait_for_event
                0x00000000401075a0                uefi_free_pages
                0x00000000401075a8                uefi_get_memory_map
                0x00000000401075b0                uefi_allocate_pages
                0x00000000401075b8                uefi_conout_output_string
                0x00000000401075c0                uefi_conin_read_key_stroke
                0x00000000401075c8                uefi_conout
                0x00000000401075d0                uefi_conin

.text           0x0000000040108000   0x11edc4 load address 0x0000000000108000
                0x0000000040108000                text = .
 *(.text)
 .text          0x0000000040108000   0x11edc4 output.o
                0x0000000040108b47                acpi_smi_hook
                0x0000000040108b95                acpi_iohook
                0x0000000040108bea                acpi_reset
                0x0000000040108ce1                acpi_poweroff
                0x0000000040108d15                get_acpi_time_raw
                0x0000000040108d33                acpi_read_mcfg
                0x000000004010eb8d                acpi_dsdt_parse
                0x000000004010ec4a                acpi_ssdt_parse
                0x000000004010ed95                apinitproc0
                0x000000004010edc1                apic_available
                0x000000004010ede8                ap_start_addr
                0x000000004010f14d                panic_wakeup_all
                0x000000004010f1ee                disable_apic
                0x000000004010f2bc                sync_all_processors
                0x000000004010f34a                start_all_processors
                0x000000004010f38c                assertion_failed
                0x000000004010f3c3                beep_set_freq
                0x000000004010f3ef                beep_on
                0x000000004010f3fa                beep_off
                0x000000004010fa95                update_mtrr_and_pat
                0x000000004010feb7                cache_get_gpat
                0x000000004010ff05                cache_set_gpat
                0x000000004010ff4d                cache_get_attr
                0x000000004010ffff                cache_get_gmtrr_type
                0x000000004011001a                cache_gmtrr_type_equal
                0x0000000040110137                cache_get_gmtrr_attr
                0x000000004011015b                cache_get_gmtrrcap
                0x0000000040110185                cache_get_gmtrr
                0x0000000040110299                cache_set_gmtrr
                0x00000000401102f6                cache_get_gmsr_amd
                0x0000000040110387                cache_set_gmsr_amd
                0x00000000401107e9                callrealmode_endofcodeaddr
                0x00000000401107f5                callrealmode_usevcpu
                0x00000000401107fd                callrealmode_printmsg
                0x0000000040110819                callrealmode_getsysmemmap
                0x0000000040110865                callrealmode_getshiftflags
                0x0000000040110882                callrealmode_setvideomode
                0x000000004011089f                callrealmode_reboot
                0x00000000401108b7                callrealmode_tcgbios
                0x0000000040110954                callrealmode_disk_readmbr
                0x0000000040110995                callrealmode_disk_readlba
                0x00000000401109e0                callrealmode_bootcd_getstatus
                0x0000000040110a35                callrealmode_setcursorpos
                0x0000000040110a5b                callrealmode_startkernel32
                0x0000000040110a7b                callrealmode_getfontinfo
                0x0000000040110ae8                call_uefi_get_memory_map
                0x0000000040110b63                call_uefi_allocate_pages
                0x0000000040110bc2                call_uefi_free_pages
                0x0000000040110be7                call_uefi_getkey
                0x0000000040110c5c                call_uefi_putchar
                0x0000000040110ca7                fill_pagetable
                0x0000000040110dab                copy_uefi_bootcode
                0x0000000040110f17                get_cpu_id
                0x0000000040110f26                cpu_emul_cpuid
                0x0000000040110fe2                cpu_emul_rdmsr
                0x0000000040111053                cpu_emul_wrmsr
                0x00000000401110c5                cpu_emul_hlt
                0x00000000401110d8                cpu_emul_cli
                0x0000000040111113                cpu_emul_sti
                0x000000004011115c                cpu_emul_realmode_int
                0x00000000401112ce                cpu_emul_xsetbv
                0x0000000040113c52                cpu_interpreter
                0x0000000040115eef                cpu_mmu_get_pte
                0x000000004011645f                write_linearaddr_ok_b
                0x0000000040116481                write_linearaddr_ok_w
                0x000000004011648f                write_linearaddr_ok_l
                0x000000004011649d                write_linearaddr_b
                0x0000000040116503                write_linearaddr_w
                0x0000000040116593                write_linearaddr_l
                0x0000000040116621                write_linearaddr_q
                0x00000000401166ad                read_linearaddr_b
                0x0000000040116712                read_linearaddr_w
                0x000000004011679c                read_linearaddr_l
                0x0000000040116826                read_linearaddr_q
                0x00000000401168b0                read_linearaddr_tss
                0x0000000040116936                write_linearaddr_tss
                0x000000004011a738                cpu_mmu_spt_tlbflush
                0x000000004011a776                cpu_mmu_spt_updatecr3
                0x000000004011a9f5                cpu_mmu_spt_invalidate
                0x000000004011aa69                cpu_mmu_spt_pagefault
                0x000000004011ac49                cpu_mmu_spt_extern_mapsearch
                0x000000004011ad77                cpu_mmu_spt_map_1mb
                0x000000004011aef5                cpu_mmu_spt_clear_all
                0x000000004011b04c                cpu_mmu_spt_init
                0x000000004011b5d7                cpu_seg_read_b
                0x000000004011b641                cpu_seg_read_w
                0x000000004011b6ab                cpu_seg_read_l
                0x000000004011b715                cpu_seg_read_q
                0x000000004011b77f                cpu_seg_write_b
                0x000000004011b7ea                cpu_seg_write_w
                0x000000004011b855                cpu_seg_write_l
                0x000000004011b8bf                cpu_seg_write_q
                0x000000004011b929                cpu_stack_get
                0x000000004011b994                cpu_stack_set
                0x000000004011ba2b                cpu_stack_push
                0x000000004011bad3                cpu_stack_pop
                0x000000004011bbb5                call_cpuid
                0x000000004011bf88                debug_gdb
                0x000000004011bf8a                debug_iohook
                0x000000004011bf8c                debug_msgregister
                0x000000004011bfbf                debug_msgunregister
                0x000000004011c062                exint_pass_intr_alloc
                0x000000004011c0a8                exint_pass_intr_free
                0x000000004011c0c6                do_exint_pass
                0x000000004011c19c                read_gphys_b
                0x000000004011c1ff                write_gphys_b
                0x000000004011c27e                read_gphys_w
                0x000000004011c30b                write_gphys_w
                0x000000004011c3b8                read_gphys_l
                0x000000004011c445                write_gphys_l
                0x000000004011c4f5                read_gphys_q
                0x000000004011c582                write_gphys_q
                0x000000004011c62f                cmpxchg_gphys_l
                0x000000004011c6e8                cmpxchg_gphys_q
                0x000000004011c7a1                gmm_pass_getforcemap
                0x000000004011c7f0                gmm_pass_gp2hp
                0x000000004011c828                gmm_pass_gp2hp_2m
                0x000000004011ccaf                idman_reinit_session
                0x000000004011cd2d                idman_reinit2
                0x000000004011cd51                get_idman_session
                0x000000004011cd7e                call_initfunc
                0x000000004011cdd5                initfunc_init
                0x000000004011e932                int_fatal
                0x000000004011ebf4                callfunc_and_getint
                0x000000004011ec0b                do_externalint_enable
                0x000000004011ec23                set_int_handler
                0x000000004011ec3e                int_exceptionHandler
                0x000000004011ec45                int_init_ap
                0x000000004011ec71                do_io_nothing
                0x000000004011ecac                set_iofunc
                0x000000004011ed1d                call_io
                0x000000004011ee01                do_iopass_default
                0x000000004011f096                keyboard_reset
                0x000000004011f0e0                setkbdled
                0x000000004011f134                keyboard_flush
                0x000000004011f153                load_bootsector
                0x000000004011f4fe                copy_bootsector
                0x000000004011f8f5                localapic_wait_for_sipi
                0x000000004011f9ca                localapic_change_base_msr
                0x000000004011fa44                localapic_mmio_register
                0x000000004011faad                localapic_delayed_ap_start
                0x000000004011fab5                localapic_x2apic_icr
                0x00000000401204e1                resume_vm
                0x0000000040120593                vmm_main
                0x0000000040120a53                getsysmemmap
                0x0000000040120ad3                getfakesysmemmap
                0x0000000040120b3e                phys_to_virt
                0x0000000040120b4f                vmm_start_inf
                0x0000000040120b56                vmm_term_inf
                0x0000000040120b62                num_of_available_pages
                0x0000000040120bd0                mm_get_panicmem
                0x0000000040120bfa                mm_free_panicmem
                0x0000000040120c3e                alloc_pages
                0x0000000040120cb1                alloc_page
                0x0000000040120cc4                alloc
                0x0000000040120f62                alloc2
                0x0000000040120f9b                free
                0x0000000040121095                realloc
                0x00000000401211b5                free_page
                0x00000000401211cb                free_page_phys
                0x00000000401211f1                mempool_new
                0x000000004012124b                mempool_free
                0x00000000401212ec                mempool_allocmem
                0x00000000401214e0                mempool_freemem
                0x0000000040121789                sym_to_phys
                0x0000000040121798                phys_in_vmm
                0x00000000401217bb                mm_force_unlock
                0x00000000401217df                mm_process_alloc
                0x0000000040121821                mm_process_free
                0x000000004012182f                pmap_open_vmm
                0x0000000040121855                pmap_open_guest
                0x0000000040121892                pmap_close
                0x0000000040121894                pmap_getreadlevel
                0x000000004012189b                pmap_setlevel
                0x00000000401218a2                pmap_seek
                0x0000000040121906                pmap_read
                0x0000000040121b57                pmap_write
                0x0000000040121ceb                mm_process_unmap
                0x0000000040121dbf                mm_process_unmap_stack
                0x0000000040121f7e                mm_process_unmapall
                0x0000000040122018                mm_process_switch
                0x00000000401221dd                pmap_pointer
                0x000000004012223b                pmap_clear
                0x0000000040122324                pmap_autoalloc
                0x000000004012247c                mm_process_map_alloc
                0x0000000040122565                mm_process_map_shared_physpage
                0x00000000401225c0                mm_process_map_shared
                0x0000000040122802                mm_process_map_stack
                0x000000004012317f                pmap_dump
                0x000000004012328a                unmapmem
                0x000000004012335c                mapmem
                0x00000000401237b2                read_hphys_b
                0x0000000040123807                write_hphys_b
                0x000000004012382c                read_hphys_w
                0x0000000040123856                write_hphys_w
                0x000000004012387c                read_hphys_l
                0x00000000401238a4                write_hphys_l
                0x00000000401238c9                read_hphys_q
                0x00000000401238f3                write_hphys_q
                0x000000004012391a                cmpxchg_hphys_l
                0x000000004012395a                cmpxchg_hphys_q
                0x000000004012399e                alloc_realmodemem
                0x0000000040123b8c                mapmem_hphys
                0x0000000040123ba7                mapmem_gphys
                0x0000000040123bc2                mm_flush_wb_cache
                0x0000000040124281                mmio_access_memory
                0x0000000040124542                mmio_access_page
                0x000000004012461b                mmio_register
                0x000000004012462f                mmio_register_unlocked
                0x0000000040124643                mmio_unregister
                0x00000000401246f2                mmio_lock
                0x000000004012472b                mmio_unlock
                0x000000004012482d                mmio_range
                0x00000000401249f1                msg_findname
                0x0000000040124a51                msg_register
                0x0000000040124b1e                msg_unregister
                0x0000000040124b9c                msg_unregisterall
                0x0000000040124c1f                msg_unregister2
                0x0000000040124cd5                call_read_msr
                0x0000000040124cec                call_write_msr
                0x0000000040125027                msr_pass_hook_x2apic_icr
                0x0000000040125134                load_minios
                0x0000000040125412                backtrace
                0x0000000040125e63                panic
                0x0000000040126423                auto_reboot
                0x0000000040126440                panic_test
                0x0000000040126463                pcpu_list_foreach
                0x0000000040126493                pcpu_list_add
                0x00000000401264e4                pcpu_init
                0x0000000040126f98                vprintf
                0x0000000040126fd6                printf
                0x000000004012701e                vsnprintf
                0x000000004012705c                snprintf
                0x000000004012728d                sys_msgsetfunc
                0x0000000040127330                sys_msgclose
                0x0000000040127348                sys_msgret
                0x000000004012742e                sys_msgregister
                0x0000000040127660                sys_msgsenddesc
                0x0000000040127a25                sys_newprocess
                0x0000000040127a88                sys_msgunregister
                0x0000000040127b13                sys_exitprocess
                0x0000000040127b63                sys_msgopen
                0x0000000040127bc4                process_kill
                0x0000000040127c28                own_process64_msrs
                0x000000004012834e                sys_msgsendint
                0x00000000401283f0                sys_msgsendbuf
                0x0000000040128526                msgsetfunc
                0x0000000040128537                msgregister
                0x0000000040128550                msgopen
                0x0000000040128566                msgclose
                0x0000000040128574                msgsendint
                0x000000004012858b                msgsenddesc
                0x00000000401285a2                newprocess
                0x00000000401285b8                msgsendbuf
                0x00000000401285d5                msgunregister
                0x0000000040128608                exitprocess
                0x000000004012861b                msgpremapbuf
                0x0000000040128730                process_syscall
                0x00000000401287e6                putchar
                0x0000000040128827                putchar_set_func
                0x0000000040128ad5                do_panic_reboot
                0x0000000040128b52                handle_init_to_bsp
                0x0000000040128bbc                reboot_test
                0x0000000040128be9                savemsr_save
                0x0000000040128c4d                savemsr_load
                0x0000000040128fb3                get_seg_base
                0x0000000040129068                get_seg_access_rights
                0x0000000040129084                segment_wakeup
                0x00000000401290c2                segment_init_ap
                0x00000000401292c8                serial_putDebugChar
                0x00000000401292d6                serial_getDebugChar
                0x00000000401292e7                serial_putchar
                0x0000000040129345                serial_init_iohook
                0x000000004012937c                waitcycles
                0x0000000040129392                usleep
                0x000000004012949e                sleep_set_timer_counter
                0x00000000401294c6                strtol
                0x0000000040129746                vmctl_svm_init
                0x0000000040129796                message_exitcode
                0x0000000040129b0e                printexitcode
                0x0000000040129b2e                svm_available
                0x0000000040129bdd                svm_reset
                0x0000000040129e81                svm_vminit
                0x000000004012a244                svm_vmexit
                0x000000004012a246                svm_init
                0x000000004012a364                svm_enable_resume
                0x000000004012a415                svm_resume
                0x000000004012a51d                svm_ioio
                0x000000004012a61a                svm_iopass
                0x000000004012a77a                svm_init_signal
                0x000000004012a7a0                svm_start_vm
                0x000000004012b511                svm_msr_update_lma
                0x000000004012b581                svm_read_msr
                0x000000004012b873                svm_write_msr
                0x000000004012bb63                svm_msrpass
                0x000000004012c1ef                svm_np_init
                0x000000004012c2ab                svm_np_pagefault
                0x000000004012c32e                svm_np_tlbflush
                0x000000004012c330                svm_np_updatecr3
                0x000000004012c33e                svm_np_clear_all
                0x000000004012c3a6                svm_np_extern_mapsearch
                0x000000004012c447                svm_np_map_1mb
                0x000000004012c4a8                svm_paging_extern_flush_tlb_entry
                0x000000004012c4cf                svm_paging_map_1mb
                0x000000004012c4f6                svm_paging_flush_guest_tlb
                0x000000004012c52f                svm_paging_init
                0x000000004012c643                svm_paging_pagefault
                0x000000004012c672                svm_paging_tlbflush
                0x000000004012c699                svm_paging_invalidate
                0x000000004012c6ca                svm_paging_npf
                0x000000004012c6f9                svm_paging_updatecr3
                0x000000004012c720                svm_paging_spt_setcr3
                0x000000004012c754                svm_paging_clear_all
                0x000000004012c77b                svm_paging_get_gpat
                0x000000004012c789                svm_paging_set_gpat
                0x000000004012c7c9                svm_paging_apply_fixed_cr0
                0x000000004012c7e8                svm_paging_apply_fixed_cr4
                0x000000004012c807                svm_paging_pg_change
                0x000000004012c809                svm_paging_start
                0x000000004012c80f                svm_panic_dump
                0x000000004012c8db                svm_read_general_reg
                0x000000004012ca17                svm_write_general_reg
                0x000000004012cb23                svm_read_control_reg
                0x000000004012cbb7                svm_write_control_reg
                0x000000004012cc88                svm_read_sreg_sel
                0x000000004012cd49                svm_read_sreg_acr
                0x000000004012ce24                svm_read_sreg_base
                0x000000004012cf3b                svm_read_sreg_limit
                0x000000004012d047                svm_read_ip
                0x000000004012d061                svm_write_ip
                0x000000004012d082                svm_read_flags
                0x000000004012d09c                svm_write_flags
                0x000000004012d0b3                svm_read_gdtr
                0x000000004012d0e5                svm_write_gdtr
                0x000000004012d109                svm_read_idtr
                0x000000004012d13b                svm_write_idtr
                0x000000004012d15f                svm_write_realmode_seg
                0x000000004012d29e                svm_writing_sreg
                0x000000004012d38d                int1a_TCG_StatusCheck
                0x000000004012d460                int1a_TCG_HashLogExtendEvent
                0x000000004012d4e9                int1a_TCG_PassThroughToTPM
                0x000000004012d572                int1a_TCG_HashLogEvent
                0x000000004012d5f5                int1a_TCG_HashAll
                0x000000004012d6af                int1a_TCG_TSS
                0x000000004012d738                int1a_TCG_CompactHashLogExtendEvent
                0x000000004012d79b                tcg_measure
                0x000000004012da9d                thread_gettid
                0x000000004012daad                schedule
                0x000000004012dcfb                thread_new
                0x000000004012de39                thread_wakeup
                0x000000004012df17                thread_will_stop
                0x000000004012df8f                thread_exit
                0x000000004012e033                thread_start1
                0x000000004012e225                get_cpu_time
                0x000000004012e2e0                get_acpi_time
                0x000000004012e37f                get_time
                0x000000004012e559                timer_new
                0x000000004012e5d5                timer_set
                0x000000004012e6f3                timer_free
                0x000000004012ebb6                tty_putchar
                0x000000004012ef35                ttylog_stop
                0x000000004012ef40                tty_udp_register
                0x000000004012ef85                tty_get_logbuf_info
                0x000000004012efc2                ttylog_copy_to_panicmem
                0x000000004012efd5                ttylog_copy_from_panicmem
                0x000000004012efe8                tty_init_iohook
                0x000000004012f001                vcpu_list_foreach
                0x000000004012f031                load_new_vcpu
                0x000000004012f0d9                vga_register
                0x000000004012f14e                vga_is_ready
                0x000000004012f1a1                vga_transfer_image
                0x000000004012f1e7                vga_fill_rect
                0x000000004012f21f                vga_get_screen_size
                0x000000004012f335                vmmcall
                0x000000004012f38d                vmmcall_register
                0x000000004012f3ca                vmmcall_init
                0x000000004012f766                vmmcall_boot_continue
                0x000000004012f7b4                vmmcall_boot_enable
                0x000000004012fd24                register_status_callback
                0x000000004012fdec                vramwrite_clearscreen
                0x000000004012fe55                vramwrite_putchar
                0x0000000040130033                vramwrite_mark1
                0x0000000040130068                vramwrite_mark2
                0x00000000401300a8                vramwrite_mark3
                0x00000000401300e7                vramwrite_save_and_move_cursor
                0x0000000040130114                vramwrite_restore_cursor
                0x0000000040130122                vramwrite_get_cursor_pos
                0x0000000040130168                vramwrite_init_global
                0x0000000040130170                vramwrite_exit_global
                0x00000000401301fb                vt_generate_pagefault
                0x0000000040130284                vt_generate_external_int
                0x00000000401302d9                vmctl_vt_init
                0x0000000040130329                vt_update_exint
                0x00000000401303ae                vt_vmptrld
                0x000000004013090b                vt_ept_init
                0x00000000401309c5                vt_ept_violation
                0x0000000040130a48                vt_ept_tlbflush
                0x0000000040130a4a                vt_ept_updatecr3
                0x0000000040130b06                vt_ept_clear_all
                0x0000000040130b6e                vt_ept_extern_mapsearch
                0x0000000040130c0f                vt_ept_map_1mb
                0x0000000040130c70                message_exitreason
                0x0000000040130de1                printexitreason
                0x0000000040131a1d                vt_available
                0x0000000040131abc                vt__vmx_init
                0x0000000040131b04                vt__vmxon
                0x0000000040131bc5                vt_vminit
                0x0000000040131c24                vt_vmexit
                0x0000000040131c41                vt_init
                0x0000000040131c54                vt_enable_resume
                0x0000000040131d3b                vt_resume
                0x0000000040131e21                vt_io
                0x0000000040131f45                vt_iopass
                0x0000000040132db5                vt_update_exception_bmp
                0x000000004013339f                vt_init_signal
                0x00000000401333ad                vt_start_vm
                0x00000000401338ff                vt_msr_load_process64_msrs
                0x00000000401339ad                vt_msr_own_process_msrs
                0x00000000401339d9                vt_add_guest_msr
                0x0000000040133b32                vt_read_guest_msr
                0x0000000040133b92                vt_write_guest_msr
                0x0000000040133bec                vt_msr_update_lma
                0x0000000040133ca1                vt_read_msr
                0x0000000040133ee0                vt_write_msr
                0x000000004013411c                vt_msrpass
                0x0000000040134215                vt_msr_init
                0x000000004013435a                vt_paging_extern_flush_tlb_entry
                0x00000000401343ad                vt_paging_map_1mb
                0x00000000401343cb                vt_paging_flush_guest_tlb
                0x000000004013442c                vt_paging_pagefault
                0x0000000040134462                vt_paging_tlbflush
                0x0000000040134480                vt_paging_invalidate
                0x00000000401344a6                vt_paging_npf
                0x00000000401344dc                vt_paging_updatecr3
                0x00000000401344ff                vt_paging_spt_setcr3
                0x0000000040134525                vt_paging_clear_all
                0x000000004013455b                vt_paging_get_gpat
                0x0000000040134569                vt_paging_set_gpat
                0x00000000401345ad                vt_paging_apply_fixed_cr0
                0x0000000040134616                vt_paging_apply_fixed_cr4
                0x000000004013465f                vt_paging_pg_change
                0x0000000040134880                vt_paging_init
                0x00000000401348cf                vt_paging_start
                0x00000000401348f0                vt_panic_dump
                0x0000000040134adc                vt_read_general_reg
                0x0000000040134c00                vt_write_general_reg
                0x0000000040134cf4                vt_read_control_reg
                0x0000000040134da3                vt_read_sreg_sel
                0x0000000040134eac                vt_read_sreg_acr
                0x0000000040134f15                vt_read_sreg_base
                0x0000000040134fa9                vt_read_sreg_limit
                0x0000000040135038                vt_read_ip
                0x0000000040135044                vt_write_ip
                0x000000004013505f                vt_read_flags
                0x0000000040135084                vt_write_flags
                0x00000000401350aa                vt_read_gdtr
                0x00000000401350c1                vt_write_gdtr
                0x00000000401350d2                vt_read_idtr
                0x0000000040135117                vt_write_idtr
                0x0000000040135148                vt_write_control_reg
                0x00000000401356b1                vt_get_current_regs_in_vmcs
                0x0000000040135961                vt_get_vmcs_regs_in_vmcs
                0x0000000040135b98                vt_write_realmode_seg
                0x0000000040135ce4                vt_writing_sreg
                0x0000000040135d70                vt_reset
                0x00000000401360db                prepare_for_sleep
                0x000000004013619d                cancel_sleep
                0x00000000401361c2                wakeup_main
                0x000000004013624d                wakeup_cont
                0x0000000040136390                wakeup_init
                0x00000000401363d7                call_xsetbv
                0x0000000040136490                mpumul_64_64
                0x00000000401364b0                mpudiv_128_32
                0x00000000401364d0                ipchecksum
                0x0000000040136560                crc32
                0x0000000040136570                asm_vmlaunch_regs_32
                0x00000000401365f0                asm_vmresume_regs_32
                0x0000000040136670                asm_vmrun_regs_32
                0x00000000401366d0                asm_vmrun_regs_nested_32
                0x0000000040136740                asm_vmlaunch_regs_64
                0x0000000040136820                asm_vmresume_regs_64
                0x0000000040136900                asm_vmrun_regs_64
                0x00000000401369b0                asm_vmrun_regs_nested_64
                0x0000000040136a62                callrealmode_start
                0x0000000040136a78                callrealmode_start2
                0x0000000040136f04                move_vmm_area32
                0x0000000040136f04                callrealmode_end
                0x0000000040136f29                move_vmm_area64
                0x0000000040136f58                int_handler
                0x0000000040136fd0                int_callfunc
                0x0000000040138000                syscall_entry_sysexit
                0x000000004013802c                syscall_entry_lret
                0x000000004013805c                ret_to_user32
                0x0000000040138068                syscall_entry_sysret64
                0x00000000401380b0                ret_to_user64
                0x0000000040139000                processuser_sysenter
                0x000000004013a000                processuser_no_sysenter
                0x000000004013b000                processuser_syscall
                0x000000004013c140                memset
                0x000000004013c1c0                memcpy
                0x000000004013c200                strcmp
                0x000000004013c240                memcmp
                0x000000004013c280                strlen
                0x000000004013c298                sx_handler
                0x000000004013c2f0                thread_switch
                0x000000004013c310                thread_start0
                0x000000004013c34a                core_init
                0x000000004013c356                core_mm_read_guest_phys
                0x000000004013c3c1                core_mm_write_guest_phys
                0x000000004013c42c                alloc_handler_descriptor
                0x000000004013c43f                core_io_modify_handler
                0x000000004013c4fe                core_io_unregister_handler
                0x000000004013c578                core_io_handle_default
                0x000000004013c84b                panic_oom
                0x000000004013c85e                core_io_register_handler
                0x000000004013c9a4                matched_drhd_u
                0x000000004013c9fb                parse_dmar_bios_report
                0x000000004013ca07                ieee1394_init
                0x000000004013ca5a                iommu_setup
                0x000000004013ca5c                iodom_init
                0x000000004013cbd4                add_remap
                0x000000004013cc09                create_dom
                0x000000004013cc0f                pci_conceal_config_write
                0x000000004013cc15                pci_conceal_config_read
                0x000000004013cc91                pci_conceal_new
                0x000000004013d0ad                pci_save_config_addr
                0x000000004013d0ba                pci_restore_config_addr
                0x000000004013d0c7                pci_append_device
                0x000000004013d0f4                pci_dump_pci_dev_list
                0x000000004013d0f6                pci_find_driver_for_device
                0x000000004013d104                pci_find_driver_by_token
                0x000000004013d16c                pci_config_addr_handler
                0x000000004013d1b0                pci_set_bridge_fake_command
                0x000000004013d27e                pci_register_driver
                0x000000004013d2cc                pci_read_config_data8
                0x000000004013d30d                pci_read_config_data16
                0x000000004013d34f                pci_read_config_data32
                0x000000004013d390                pci_write_config_data8
                0x000000004013d3cf                pci_write_config_data16
                0x000000004013d40f                pci_write_config_data32
                0x000000004013d44e                pci_read_config_data_port
                0x000000004013d47b                pci_write_config_data_port
                0x000000004013d4ac                pci_readwrite_config_mmio
                0x000000004013d567                pci_read_config_mmio
                0x000000004013d58a                pci_write_config_mmio
                0x000000004013d5ad                pci_handle_default_config_write
                0x000000004013d71f                pci_handle_default_config_read
                0x000000004013d7ee                pci_config_data_handler
                0x000000004013db1f                pci_config_mmio_handler
                0x000000004013de25                pci_get_bar_info
                0x000000004013de37                pci_set_bridge_io
                0x000000004013e17d                pci_get_modifying_bar_info
                0x000000004013e231                pci_driver_option_get_int
                0x000000004013e2aa                pci_driver_option_get_bool
                0x000000004013e39a                pci_msi_init
                0x000000004013e5ce                pci_msi_enable
                0x000000004013e61a                pci_msi_disable
                0x000000004013e666                pci_print_device
                0x000000004013eaae                pci_get_bridge_from_bus_no
                0x000000004013eaf0                pci_set_bridge_from_bus_no
                0x000000004013ee2b                pci_reconnect_device
                0x000000004013f093                pci_possible_new_device
                0x000000004013f5cc                pci_match
                0x000000004013fd03                pci_match_add_compat
                0x000000004013fd2f                pci_match_find_driver
                0x000000004014034b                security_storage_check_lba
                0x00000000401416dd                pci_monitor_config_read
                0x000000004014182b                pci_monitor_config_write
                0x0000000040141ed5                pci_monitor_new
                0x0000000040144e9c                ahci_new
                0x000000004014512b                ahci_config_read
                0x000000004014518c                ahci_config_write
                0x00000000401453b5                ata_bm_handle_command
                0x00000000401454df                ata_bm_handle_status
                0x000000004014557d                ata_bm_handle_prd_table
                0x0000000040145663                ata_bm_handler
                0x0000000040145736                ata_get_cmd_type
                0x0000000040145a76                ata_handle_queued_status
                0x0000000040146406                ata_channel_lock
                0x000000004014646e                ata_channel_unlock
                0x0000000040146490                ata_cmdblk_handler
                0x0000000040146574                ata_ctlblk_handler
                0x000000004014715e                ata_ahci_mode
                0x00000000401475ae                ata_init_io_handler
                0x0000000040147644                ata_set_bm_handler
                0x0000000040147697                ata_set_cmdblk_handler
                0x00000000401476d0                ata_set_ctlblk_handler
                0x000000004014770b                ata_config_read
                0x00000000401477d1                ata_config_write
                0x0000000040147968                ata_init_vendor
                0x000000004014798b                ata_bm_handle_device_specific
                0x0000000040147a72                atapi_handle_config_data
                0x0000000040147cef                atapi_handle_interrupt_reason
                0x0000000040147d38                atapi_handle_pio_identify_packet
                0x0000000040147f1a                atapi_handle_packet_data
                0x0000000040147f20                atapi_handle_cmd_packet
                0x0000000040147f91                packet_handle_through
                0x0000000040147fbf                packet_handle_nondata
                0x0000000040147fd4                packet_handle_config
                0x0000000040148019                packet_handle_rw
                0x00000000401480a4                packet_handle_invalid
                0x00000000401480b9                packet_handle_command
                0x00000000401480ea                uhci_init
                0x0000000040148986                uhci_current_frame_number
                0x0000000040148993                dump_td_byvirt
                0x0000000040148b3e                dump_td
                0x0000000040148c0c                dump_qh
                0x0000000040148de0                dump_frame
                0x0000000040148ed3                uhci_dump_all
                0x000000004014913f                uhci_error_status_string
                0x000000004014938b                uhci_shadow_buffer
                0x00000000401495e8                uhci_framelist_monitor
                0x000000004014b64a                scan_gframelist
                0x000000004014bea5                uhci_create_urb
                0x000000004014bf71                uhci_destroy_urb
                0x000000004014c09a                uhci_destroy_unlinked_urbs
                0x000000004014c172                uhci_deactivate_urb
                0x000000004014c4c7                uhci_activate_urb
                0x000000004014ca44                uhci_reactivate_urb
                0x000000004014cae4                uhci_submit_control
                0x000000004014d142                uhci_submit_interrupt
                0x000000004014d1a7                uhci_submit_bulk
                0x000000004014d20c                uhci_check_urb_advance
                0x000000004014d238                uhci_check_advance
                0x000000004014d435                init_hframelist
                0x000000004014d6e1                ehci_conceal_portroute
                0x000000004014d71c                ehci_init
                0x000000004014f5ef                ehci_dump_qtd
                0x000000004014f650                ehci_dump_qtdm
                0x000000004014f684                ehci_dump_alist
                0x000000004014f741                ehci_dump_urblist
                0x000000004014f7d1                ehci_dump_urb
                0x000000004014fc82                ehci_dump_async
                0x0000000040150065                ehci_dump_all
                0x000000004015154e                ehci_shadow_buffer
                0x00000000401517e7                get_gurb_by_address
                0x000000004015187e                shadow_and_activate_urb
                0x0000000040151b5e                ehci_deactivate_urb
                0x0000000040151ce5                deactivate_and_delete_urb
                0x0000000040151f5d                ehci_check_urb_advance
                0x0000000040152122                ehci_check_advance
                0x000000004015235b                ehci_shadow_async_list
                0x0000000040152463                ehci_cleanup_urbs
                0x00000000401525bd                ehci_end_monitor_async
                0x0000000040152628                ehci_monitor_async_list
                0x0000000040152be6                ehci_submit_control
                0x00000000401531c5                ehci_submit_bulk
                0x00000000401531cb                ehci_submit_interrupt
                0x0000000040154d03                usbmsc_init_handle
                0x00000000401550eb                usbhub_init_handle
                0x000000004015514e                hub_portdevice_register
                0x00000000401558cb                usbccid_init_handle
                0x00000000401559d6                usb_set_debug
                0x00000000401559dd                usb_init
                0x00000000401559df                usb_find_busses
                0x0000000040155abc                usb_get_busses
                0x0000000040155ac4                usb_get_bus
                0x0000000040155aef                usb_find_devices
                0x0000000040155b3a                usb_open
                0x0000000040155b97                usb_close
                0x0000000040155baa                usb_resetep
                0x0000000040155bb0                usb_clear_halt
                0x0000000040155bb6                usb_reset
                0x0000000040155bbc                usb_claim_interface
                0x0000000040155bc5                usb_release_interface
                0x0000000040155bd2                usb_set_configuration
                0x0000000040155e8f                usb_set_altinterface
                0x000000004015614f                usb_control_msg
                0x00000000401564c1                usb_get_string
                0x0000000040156810                usb_get_string_simple
                0x00000000401569dd                usb_get_descriptor
                0x0000000040156d2d                usb_get_descriptor_early
                0x000000004015708a                usb_get_descriptor_by_endpoint
                0x00000000401573dc                usb_bulk_write
                0x000000004015760f                usb_interrupt_write
                0x0000000040157842                usb_bulk_read
                0x0000000040157afe                usb_interrupt_read
                0x0000000040157dba                usb_register_host
                0x0000000040157e8e                usb_unregister_devices
                0x0000000040157ebf                usb_sc_lock
                0x0000000040157f22                usb_sc_unlock
                0x0000000040158254                free_config_descriptors
                0x0000000040158cd3                free_device
                0x0000000040158e36                handle_connect_status
                0x0000000040158f2d                handle_port_reset
                0x0000000040158ffe                dprintf_port
                0x000000004015997e                usb_init_device_monitor
                0x00000000401599d2                usb_new_dev_handle
                0x0000000040159a78                usbhid_init_handle
                0x0000000040159ba1                usb_hook_process
                0x0000000040159ecb                usb_hook_register
                0x0000000040159f9e                usb_hook_unregister
                0x000000004015a00f                _dprintf
                0x000000004015a062                _dprintft
                0x000000004015a112                pro100_io_handler
                0x000000004015a118                pro100_config_read
                0x000000004015a132                pro100_config_write
                0x000000004015a257                pro100_init
                0x000000004015a26a                pro100_init_vpn_client
                0x000000004015a2b2                pro100_sleep
                0x000000004015a2d6                pro100_beep
                0x000000004015a2ff                pro100_get_ctx
                0x000000004015a37a                pro100_alloc_page
                0x000000004015a3af                pro100_free_page
                0x000000004015a3c7                pro100_get_op_size
                0x000000004015a400                pro100_mem_read
                0x000000004015a46e                pro100_read_send_packet
                0x000000004015a61a                pro100_mem_write
                0x000000004015a682                pro100_write
                0x000000004015a6ed                pro100_read
                0x000000004015a765                pro100_wait_cu_ru_accepable
                0x000000004015a7a2                pro100_init_cu_base_addr
                0x000000004015a7f6                pro100_init_ru_base_addr
                0x000000004015a84a                pro100_flush
                0x000000004015a868                pro100_exec_cu_op
                0x000000004015a9b5                pro100_send_packet_to_line
                0x000000004015aaef                pro100_generate_int
                0x000000004015ab18                pro100_write_recv_packet
                0x000000004015ac70                pro100_proc_guest_op
                0x000000004015ae85                pro100_get_int_bit_string
                0x000000004015aeed                pro100_get_stat_ack_string
                0x000000004015af4d                pro100_get_cu_command_string
                0x000000004015afbb                pro100_get_ru_command_string
                0x000000004015aff9                pro100_init_recv_buffer
                0x000000004015b0e8                pro100_poll_ru
                0x000000004015b1e8                pro100_hook_write
                0x000000004015b469                pro100_hook_read
                0x000000004015b624                pro100_mm_handler
                0x000000004015b75e                pro100_alloc_recv_buffer
                0x000000004015b7c0                pro100_new
                0x000000004015fbf6                virtio_net_config_read
                0x000000004015fe69                virtio_net_config_write
                0x0000000040160011                virtio_net_set_multifunction
                0x0000000040160015                virtio_net_set_msix
                0x000000004016002e                virtio_net_msix
                0x00000000401600b2                virtio_intr
                0x0000000040160114                virtio_net_init
                0x000000004016027a                storage_premap_buf
                0x0000000040160280                storage_premap_handle_sectors
                0x000000004016059d                storage_get_num_hc
                0x00000000401605ca                storage_hc_open
                0x00000000401606bf                storage_hc_close
                0x000000004016070c                storage_hc_hook_register
                0x0000000040160784                storage_hc_hook_unregister
                0x0000000040160821                storage_hc_register
                0x00000000401609e7                storage_hc_unregister
                0x0000000040160ada                storage_hc_scandev
                0x0000000040160b22                storage_hc_dev_open
                0x0000000040160c47                storage_hc_dev_atacommand
                0x0000000040160dd4                storage_hc_dev_close
                0x0000000040160e8a                storage_io_init
                0x0000000040160e9a                storage_io_deinit
                0x0000000040160ea8                storage_io_get_num_devices
                0x0000000040160f6b                storage_io_aget_size
                0x000000004016107c                storage_io_aread
                0x0000000040161236                storage_io_awrite
                0x000000004016191a                storage_handle_sectors
                0x0000000040161b8d                storage_new
                0x000000004016205e                storage_free
                0x000000004016206c                storage_init
                0x0000000040162252                aes_xts_init
                0x0000000040162288                crypto_find
                0x00000000401622cb                crypto_register
                0x000000004016230e                crypto_init
                0x0000000040162360                crypto_none_init
                0x0000000040162438                vpn_GetCurrentCpuId
                0x0000000040162446                vpn_GetTickCount
                0x0000000040162477                vpn_NewTimer
                0x0000000040162494                vpn_SetTimer
                0x00000000401624ab                vpn_FreeTimer
                0x00000000401624b9                vpn_GetPhysicalNicInfo
                0x0000000040162504                vpn_SendPhysicalNic
                0x000000004016251d                vpn_SetPhysicalNicRecvCallback
                0x0000000040162545                vpn_GetVirtualNicInfo
                0x0000000040162590                vpn_SendVirtualNic
                0x00000000401625a9                vpn_SetVirtualNicRecvCallback
                0x00000000401625d4                vpn_ic_rsa_sign
                0x0000000040162c00                msg_vpn_GetCurrentCpuId
                0x0000000040162c1b                msg_vpn_ic_rsa_sign
                0x0000000040162cd4                msg_vpn_GetTickCount
                0x0000000040162d15                msg_vpn_GetPhysicalNicInfo
                0x0000000040162d78                msg_vpn_SendPhysicalNic
                0x0000000040162e2d                msg_vpn_SetPhysicalNicRecvCallback
                0x0000000040162e7d                msg_vpn_GetVirtualNicInfo
                0x0000000040162ee0                msg_vpn_SendVirtualNic
                0x0000000040162f95                msg_vpn_SetVirtualNicRecvCallback
                0x0000000040162fe5                msg_vpn_NewTimer
                0x0000000040163048                msg_vpn_SetTimer
                0x0000000040163112                msg_vpn_FreeTimer
                0x000000004016317e                vpn_start
                0x00000000401634d1                vpn_user_init
                0x0000000040163515                SeFreeConfigEntryList
                0x0000000040163564                SeGetConfigEntry
                0x00000000401635ce                SeGetConfigStr
                0x00000000401635fc                SeGetConfigBin
                0x0000000040163624                SeGetConfigInt64
                0x000000004016364c                SeGetConfigInt
                0x0000000040163674                SeGetConfigBool
                0x000000004016370a                SeIsSplitChar
                0x0000000040163773                SeGetKeyAndValue
                0x0000000040163971                SeLoadConfigEntryListFromBuf
                0x0000000040163ae1                SeLoadConfigEntryList
                0x0000000040163b19                SePKeyPasswordCallbackFunction
                0x0000000040163b51                SeDhFree
                0x0000000040163b88                SeRsaVerifyWithPadding
                0x0000000040163c57                SeRsaSignWithPadding
                0x0000000040163d0f                SeRsaPublicDecrypt
                0x0000000040163d9b                SeRsaPrivateEncrypt
                0x0000000040163e27                SeRsaPrivateDecrypt
                0x0000000040163eab                SeRsaPublicEncrypt
                0x0000000040163f2f                SeGetCertSha1
                0x0000000040163f6c                SeGetCertMd5
                0x0000000040163fa9                SeBinToBigNum
                0x0000000040163fde                SeDhCompute
                0x0000000040164054                SeBufToBigNum
                0x0000000040164075                SeBigNumToBuf
                0x00000000401640ed                SeDhNew
                0x00000000401641a4                SeDhNewGroup2
                0x00000000401641bc                SeRsaPublicToBuf
                0x0000000040164203                SeRsaPublicToBin
                0x000000004016425b                SeRsaPublicSize
                0x00000000401642b3                SeCheckSignature
                0x00000000401642e1                SeGetKeyFromCert
                0x0000000040164313                SeCompareCert
                0x0000000040164341                SeCheckCertAndKey
                0x000000004016436f                SeIsBase64
                0x00000000401643d5                SeFreePKey
                0x00000000401643e9                SeFreeKey
                0x0000000040164405                SeCheckCert
                0x0000000040164453                SeIsCertSignedByCert
                0x00000000401644b1                SeBioToKey
                0x00000000401645ae                SeGetCertIssuerName
                0x0000000040164634                SeGetCertSubjectName
                0x00000000401646ba                SeFreeX509
                0x00000000401646ce                SeFreeCert
                0x00000000401646f0                SeFreeBio
                0x0000000040164704                SeNewBio
                0x000000004016471a                SeRsaGen
                0x0000000040164873                SeKeyToBio
                0x0000000040164975                SeCertToBio
                0x00000000401649c1                SeBioToBuf
                0x0000000040164a43                SeBigNumToStr
                0x0000000040164aaf                SeKeyToBuf
                0x0000000040164b03                SeX509ToCert
                0x0000000040164bb3                SeBioToCert
                0x0000000040164bff                SeSaveKey
                0x0000000040164c51                SeCertToBuf
                0x0000000040164ca5                SeSaveCert
                0x0000000040164cf2                SeBufToBio
                0x0000000040164d4d                SeBufToCert
                0x0000000040164d93                SeCloneCert
                0x0000000040164ddf                SeLoadCert
                0x0000000040164e21                SeBufToKey
                0x0000000040164e6f                SeCloneKey
                0x0000000040164ecb                SeLoadKey
                0x0000000040164f6d                SeSha1
                0x0000000040164f93                SeMacSha1
                0x00000000401650eb                SeMacSha196
                0x0000000040165138                SeHashForSignBySHA1
                0x00000000401651e1                SeRsaVerifyWithSha1
                0x000000004016527e                SeRsaSignWithSha1
                0x000000004016530b                SeMd5
                0x0000000040165331                SeDes3Encrypt
                0x00000000401653b3                SeDes3Decrypt
                0x0000000040165435                SeDesNewKeyValue
                0x000000004016548c                SeDes3NewKey
                0x00000000401654fa                SeDesNewKey
                0x000000004016550e                SeDesRandKeyValue
                0x000000004016552b                SeDes3RandKey
                0x0000000040165567                SeDesRandKey
                0x00000000401655a4                SeDesFreeKeyValue
                0x00000000401655c0                SeDes3FreeKey
                0x00000000401655ee                SeDesFreeKey
                0x00000000401655fc                SeRand
                0x0000000040165614                SeRand64
                0x0000000040165631                SeRand32
                0x000000004016564d                SeRand16
                0x000000004016566a                SeRand8
                0x0000000040165687                SeRand1
                0x000000004016569d                SeInitCrypto
                0x00000000401656da                SeFreeCrypto
                0x00000000401656e9                SeIkeStrToPassword
                0x0000000040165743                SeIkePhase1CryptIdToKeySize
                0x0000000040165761                SeIkePhase2CryptIdToKeySize
                0x000000004016577f                SeIkeStrToPhase1Mode
                0x00000000401657af                SeIkeStrToPhase1CryptId
                0x0000000040165808                SeIkeStrToPhase1HashId
                0x000000004016583a                SeIkeStrToPhase2CryptId
                0x0000000040165898                SeIkeStrToPhase2HashId
                0x00000000401658ca                SeIkeIsZeroIP
                0x00000000401658fe                SeIkeInitIPv6Address
                0x000000004016593c                SeIkeInitIPv4Address
                0x0000000040165970                SeIkeGetIPv6Address
                0x0000000040165992                SeIkeGetIPv4Address
                0x00000000401659af                SeIkeIpAddressToStr
                0x00000000401659ed                SeIkeBuildDataPayload
                0x0000000040165a2b                SeIkeBuildTransformValue
                0x0000000040165aec                SeIkeBuildTransformValueList
                0x0000000040165b57                SeIkeBuildTransformPayload
                0x0000000040165bd3                SeIkeBuildIdPayload
                0x0000000040165c4a                SeIkeBuildCertPayload
                0x0000000040165cab                SeIkeBuildCertRequestPayload
                0x0000000040165d0c                SeIkeBuildNoticePayload
                0x0000000040165d9a                SeIkeBuildDeletePayload
                0x0000000040165e76                SeIkeGetFirstPayloadType
                0x0000000040165e97                SeIkeBuildPayloadList
                0x0000000040165fa0                SeIkeBuildSaPayload
                0x0000000040166029                SeIkeBuildProposalPayload
                0x00000000401660d7                SeIkeBuildPayload
                0x00000000401661b5                SeIkeGetPayload
                0x00000000401661fe                SeIkeGetPayloadNum
                0x000000004016623c                SeIkeNewPayload
                0x000000004016624d                SeIkeNewDeletePayload
                0x000000004016627e                SeIkeNewNoticePayload
                0x0000000040166307                SeIkeNewCertRequestPayload
                0x0000000040166356                SeIkeNewCertPayload
                0x00000000401663a5                SeIkeNewIdPayload
                0x000000004016640c                SeIkeNewTransformPayload
                0x0000000040166440                SeIkeNewProposalPayload
                0x00000000401664b1                SeIkeNewSaPayload
                0x00000000401664d2                SeIkeNewDataPayload
                0x000000004016650b                SeIkeNewTransformValue
                0x000000004016652c                SeIkeFreeTransformValueList
                0x0000000040166568                SeIkeParseTransformValueList
                0x00000000401666da                SeIkeParseTransformPayload
                0x000000004016673d                SeIkeFreeTransformPayload
                0x0000000040166762                SeIkeParseIdPayload
                0x00000000401667d7                SeIkeFreeIdPayload
                0x00000000401667fc                SeIkeParseCertPayload
                0x000000004016685c                SeIkeFreeCertPayload
                0x0000000040166881                SeIkeParseCertRequestPayload
                0x00000000401668e1                SeIkeFreeCertRequestPayload
                0x0000000040166906                SeIkeParseNoticePayload
                0x00000000401669c3                SeIkeFreeNoticePayload
                0x00000000401669fb                SeIkeFreeDeletePayload
                0x0000000040166a4d                SeIkeParseDeletePayload
                0x0000000040166b44                SeIkeParseDataPayload
                0x0000000040166b72                SeIkeFreeDataPayload
                0x0000000040166b89                SeIkeFreePayloadList
                0x0000000040166bc5                SeIkeFreeSaPayload
                0x0000000040166be8                SeIkeFreeProposalPayload
                0x0000000040166c20                SeIkeFreePayload
                0x0000000040166cb6                SeIkeParsePayloadListEx
                0x0000000040166e32                SeIkeParsePayloadList
                0x0000000040166e48                SeIkeParseSaPayload
                0x0000000040166efe                SeIkeParseProposalPayload
                0x0000000040166fa3                SeIkeParsePayload
                0x000000004016708c                SeIkeEncrypt
                0x0000000040167132                SeIkeEncryptWithPadding
                0x00000000401671d1                SeIkeBuild
                0x0000000040167326                SeIkeDecrypt
                0x00000000401673cc                SeIkeFree
                0x00000000401673fc                SeIkeParseEx
                0x00000000401675b3                SeIkeParseHeader
                0x00000000401675c6                SeIkeParse
                0x00000000401675d9                SeIkeNew
                0x0000000040167637                VPN_IPsec_Client_Start
                0x0000000040167662                VPN_IPsec_Client_Stop
                0x0000000040167676                SeIntInit
                0x000000004016768c                SeIntFree
                0x00000000401676a9                VPN_IPsec_Init
                0x00000000401676f7                VPN_IPsec_Free
                0x000000004016772d                SeSysMemoryAlloc
                0x000000004016774c                SeSysMemoryReAlloc
                0x0000000040167779                SeSysMemoryFree
                0x0000000040167795                SeSysGetCurrentCpuId
                0x00000000401677b0                SeSysNewLock
                0x00000000401677cb                SeSysLock
                0x00000000401677e7                SeSysUnlock
                0x0000000040167803                SeSysFreeLock
                0x000000004016781f                SeSysGetTickCount
                0x000000004016783a                SeSysNewTimer
                0x0000000040167862                SeSysSetTimer
                0x000000004016787e                SeSysFreeTimer
                0x000000004016789a                SeSysGetPhysicalNicInfo
                0x00000000401678bb                SeSysSendPhysicalNic
                0x00000000401678e5                SeSysSetPhysicalNicRecvCallback
                0x0000000040167911                SeSysGetVirtualNicInfo
                0x0000000040167932                SeSysSendVirtualNic
                0x000000004016795f                SeSysSetVirtualNicRecvCallback
                0x000000004016798e                SeSysSaveData
                0x00000000401679b9                SeSysLoadData
                0x00000000401679e4                SeSysFreeData
                0x0000000040167a03                SeSysRsaSign
                0x0000000040167a3e                SeSysLog
                0x0000000040167a6f                SeRsaSign
                0x0000000040167af6                Se4ParseIpPacketUDPv4
                0x0000000040167bcc                Se4FreeIpHeaderInfo
                0x0000000040167bf4                Se4IpChecksum
                0x0000000040167c66                Se4AdjustTcpMss
                0x0000000040167dff                Se4BuildIcmpEchoPacket
                0x0000000040167eaa                Se4ParseIpPacketICMPv4
                0x0000000040167fc9                Se4IpCheckChecksum
                0x0000000040168001                Se4Tick
                0x000000004016801d                Se4BroadcastMacAddress
                0x0000000040168023                Se4SendEthPacket
                0x00000000401680d7                Se4SendIpFragmentNow
                0x0000000040168104                Se4InitArpEntryList
                0x0000000040168117                Se4FreeArpEntryList
                0x0000000040168153                Se4FlushArpEntryList
                0x00000000401681f1                Se4SearchArpEntryList
                0x0000000040168268                Se4AddArpEntryList
                0x0000000040168331                Se4SearchArpWaitList
                0x0000000040168370                Se4InitArpWaitList
                0x0000000040168383                Se4FreeArpWaitList
                0x00000000401683bf                Se4InsertIpWait
                0x0000000040168428                Se4InitIpWaitList
                0x000000004016843b                Se4FreeIpWait
                0x0000000040168458                Se4FlushIpWaitList
                0x0000000040168507                Se4FreeIpWaitList
                0x0000000040168543                Se4InitIpCombineList
                0x0000000040168556                Se4SearchIpCombineList
                0x00000000401685b7                Se4InitIpFragmentList
                0x00000000401685ca                Se4InsertIpCombine
                0x00000000401686b2                Se4FreeIpFragmentList
                0x00000000401686ee                Se4FreeIpCombine
                0x000000004016871a                Se4FreeIpCombineList
                0x0000000040168758                Se4FlushIpCombineList
                0x000000004016882c                Se4Free
                0x0000000040168864                Se4And
                0x0000000040168893                Se4GetNetworkAddress
                0x000000004016889a                Se4Or
                0x00000000401688c9                Se4Not
                0x00000000401688fd                Se4GetHostAddress
                0x0000000040168912                Se4GetBroadcastAddress
                0x000000004016893c                Se4GenerateSubnetMask32
                0x000000004016895e                Se4IPToStr
                0x000000004016899c                Se4ZeroIP
                0x00000000401689b8                Se4StrToIP
                0x0000000040168a56                Se4IPToUINT
                0x0000000040168a7b                Se4SendArpDoProcess
                0x0000000040168b70                Se4SendArpRequest
                0x0000000040168bcb                Se4ProcessArpWaitList
                0x0000000040168c7c                Se4MainProc
                0x0000000040168ca1                Se4SendArpResponse
                0x0000000040168d77                Se4IsBroadcastAddress
                0x0000000040168d8e                Se4Cmp
                0x0000000040168db8                Se4CmpArpEntry
                0x0000000040168df2                Se4CmpArpWaitEntry
                0x0000000040168e2c                Se4SendWaitingIpWait
                0x0000000040168f0a                Se4CmpIpCombineList
                0x0000000040168f84                Se4IsInSameNetwork
                0x0000000040168fb8                Se4MacIpRelationKnown
                0x0000000040169058                Se4ParseIpPacket
                0x0000000040169198                Se4IsZeroIP
                0x00000000401691ae                Se4Init
                0x00000000401692ad                Se4CheckUnicastAddress
                0x00000000401692ef                Se4StrToIP32
                0x0000000040169304                Se4UINTToIP
                0x0000000040169329                Se4SendRawIp
                0x000000004016947e                Se4SendIpFragment
                0x00000000401695a9                Se4SendIp
                0x000000004016968a                Se4SendIcmpEchoRequest
                0x0000000040169702                Se4SendIcmpEchoResponse
                0x000000004016977a                Se4RecvIpComplete
                0x0000000040169842                Se4CombineIp
                0x0000000040169acb                Se4SendIcmp
                0x0000000040169b73                Se4SendUdp
                0x0000000040169c9a                Se4RecvIp
                0x0000000040169f22                Se4RecvArpRequest
                0x000000004016a032                Se4RecvArpResponse
                0x000000004016a071                Se4RecvArp
                0x000000004016a11a                Se4RecvEthPacket
                0x000000004016a197                Se4GenerateSubnetMask
                0x000000004016a1ac                Se4IsSubnetMask
                0x000000004016a1e8                Se4IPToStr32
                0x000000004016a1ff                Se6CmpIpCombineList
                0x000000004016a2c8                Se6CmpNdpWaitEntry
                0x000000004016a32c                Se6CmpNeighborEntry
                0x000000004016a390                Se6IsGuestNode
                0x000000004016a460                Se6FreeIpHeaderInfo
                0x000000004016a488                Se6IpChecksum
                0x000000004016a4fa                Se6CalcChecksum
                0x000000004016a59d                Se6BuildIcmpEchoPacket
                0x000000004016a682                Se6ParseIpPacketUDPv6
                0x000000004016a7ab                Se6ParseIpPacketICMPv6
                0x000000004016a9ac                Se6BroadcastMacAddress
                0x000000004016a9b2                Se6SendEthPacket
                0x000000004016aa66                Se6SendIpFragmentNow
                0x000000004016aa93                Se6InitNeighborEntryList
                0x000000004016aaa6                Se6FreeNeighborEntryList
                0x000000004016aae2                Se6FlushNeighborEntryList
                0x000000004016ab80                Se6SearchNeighborEntryList
                0x000000004016abd3                Se6AddNeighborEntryList
                0x000000004016aca0                Se6SearchNdpWaitList
                0x000000004016ace8                Se6InitNdpWaitList
                0x000000004016acfb                Se6FreeNdpWaitList
                0x000000004016ad37                Se6InsertIpWait
                0x000000004016adb7                Se6InitIpWaitList
                0x000000004016adca                Se6FreeIpWait
                0x000000004016ade7                Se6SendWaitingIpWait
                0x000000004016aef6                Se6FreeIpWaitList
                0x000000004016af32                Se6InitIpCombineList
                0x000000004016af45                Se6SearchIpCombineList
                0x000000004016afc5                Se6InitIpFragmentList
                0x000000004016afd8                Se6FreeIpFragmentList
                0x000000004016b014                Se6FreeIpCombine
                0x000000004016b043                Se6FreeIpCombineList
                0x000000004016b081                Se6Free
                0x000000004016b0c5                Se6Tick
                0x000000004016b0e1                Se6FlushIpWaitList
                0x000000004016b196                Se6FlushIpCombineList
                0x000000004016b26d                Se6InsertIpCombine
                0x000000004016b38c                Se6GenerateEui64Address
                0x000000004016b3e1                Se6GenerateMulticastMacAddress
                0x000000004016b414                Se6GetAllNodeMulticastAddr
                0x000000004016b441                Se6GetAllRouterMulticastAddr
                0x000000004016b46e                Se6GetIPAddrType
                0x000000004016b5c8                Se6CheckUnicastAddress
                0x000000004016b60c                Se6And
                0x000000004016b64d                Se6GetPrefixAddress
                0x000000004016b65b                Se6IsInSameNetwork
                0x000000004016b6e0                Se6ParseIpPacket
                0x000000004016b8c1                Se6Or
                0x000000004016b902                Se6Not
                0x000000004016b937                Se6GetHostAddress
                0x000000004016b966                Se6IsNetworkPrefixAddress
                0x000000004016b992                Se6GenerateSubnetMask
                0x000000004016b9ec                Se6LocalSubnet
                0x000000004016b9ff                Se6MacIpRelationKnown
                0x000000004016baf5                Se6AddGuestNode
                0x000000004016bbab                Se6GetSoliciationMulticastAddr
                0x000000004016bc3d                Se6SendIcmpNeighborSoliciation
                0x000000004016bd63                Se6SendNeighborSoliciationDoProcess
                0x000000004016bde8                Se6ProcessNdpWaitList
                0x000000004016be9f                Se6SendNeighborSoliciation
                0x000000004016bf15                Se6SendRawIp
                0x000000004016c0a1                Se6SendIpFragment
                0x000000004016c0c6                Se6SendIp
                0x000000004016c235                Se6SendIcmpEchoRequest
                0x000000004016c2da                Se6SendIcmpEchoResponse
                0x000000004016c37f                Se6SendIcmp
                0x000000004016c468                Se6SendIcmpNeighborAdvertisement
                0x000000004016c5a1                Se6SendUdp
                0x000000004016c6ad                Se6SubnetMaskToInt
                0x000000004016c70d                Se6SendIcmpRouterAdvertisement
                0x000000004016c8af                Se6MainProc
                0x000000004016c8fd                Se6RecvIpComplete
                0x000000004016cc69                Se6CombineIp
                0x000000004016cf03                Se6RecvIp
                0x000000004016d10b                Se6RecvEthPacket
                0x000000004016d172                Se6IsSubnetMask
                0x000000004016d1d5                Se6Cmp
                0x000000004016d203                Se6IsZeroIP
                0x000000004016d222                Se6IPToStr
                0x000000004016d36f                Se6IPItemStrToChars
                0x000000004016d460                Se6CheckIPItemStr
                0x000000004016d4c6                Se6ZeroIP
                0x000000004016d4e5                Se6GenerateEui64GlobalAddress
                0x000000004016d592                Se6GenerateEui64LocalAddress
                0x000000004016d5f0                Se6Init
                0x000000004016d780                Se6StrToIP
                0x000000004016d8dd                Se6CheckSubnetLength
                0x000000004016d8ea                SeTimerEntryCompare
                0x000000004016d924                SeEthGetInfo
                0x000000004016d94c                SeEthSendAdd
                0x000000004016d976                SeEthParseEthernetPacket
                0x000000004016da78                SeEthGenRandMacAddress
                0x000000004016dac9                SeLoad
                0x000000004016db35                SeSave
                0x000000004016db55                SeTick
                0x000000004016db68                SeGetCurrentCpuId
                0x000000004016db7b                SeNewLock
                0x000000004016dba9                SeTimerNew
                0x000000004016dc09                SeEthNew
                0x000000004016dd02                SeLock
                0x000000004016dd3e                SeUnlock
                0x000000004016dd69                SeEthGetNextRecvPacket
                0x000000004016dda7                SeTick64Internal
                0x000000004016ddef                SeInitKernel
                0x000000004016de1c                SeTick64
                0x000000004016de3e                SeTimerAdjust
                0x000000004016deb4                SeTimerCallback
                0x000000004016dfaf                SeTimerSet
                0x000000004016e031                SeEthDeleteOldSenderMacList
                0x000000004016e0f4                SeEthAddSenderMacList
                0x000000004016e1ca                SeEthSend
                0x000000004016e25b                SeEthSendAll
                0x000000004016e330                SeEthIsSenderMacAddressExistsInList
                0x000000004016e3ca                SeEthNicCallback
                0x000000004016e4c0                SeDeleteLock
                0x000000004016e4dc                SeFreeKernel
                0x000000004016e4f5                SeTimerFree
                0x000000004016e54f                SeEthFree
                0x000000004016e5f4                SeLogArgs
                0x000000004016e625                SeDebug
                0x000000004016e675                SeDebugBin
                0x000000004016e6cf                SeFatal
                0x000000004016e71f                SeInfo
                0x000000004016e76f                SeError
                0x000000004016e7bf                SeWarning
                0x000000004016e80f                SeLog
                0x000000004016e852                SeB64CodeToChar
                0x000000004016e892                SeB64CharToCode
                0x000000004016e8d0                SeIsZero
                0x000000004016e915                SeReplaceListPointer
                0x000000004016e967                SeIsInListStr
                0x000000004016e9c3                SeIsInList
                0x000000004016ea04                SeCompareStr
                0x000000004016ea2a                SeSetSortFlag
                0x000000004016ea34                SeSetCmp
                0x000000004016ea51                SeFastSwap
                0x000000004016ea7f                SeQSort
                0x000000004016edb4                SeSort
                0x000000004016ede0                SeBSearch
                0x000000004016eeb8                SeSearch
                0x000000004016ef1d                SeFifoSize
                0x000000004016ef2c                SeDumpBuf
                0x000000004016ef58                SeSeekBuf
                0x000000004016ef87                SeClearBuf
                0x000000004016ef9c                SeEndian16
                0x000000004016efb9                SeSwap16
                0x000000004016efd6                SeSwap32
                0x000000004016f004                SeEndian32
                0x000000004016f00b                SeSwap64
                0x000000004016f06a                SeEndian64
                0x000000004016f071                SeMalloc
                0x000000004016f0a6                SeNewFifo
                0x000000004016f0db                SeNewBuf
                0x000000004016f110                SeReAlloc
                0x000000004016f178                SePush
                0x000000004016f1c0                SePop
                0x000000004016f220                SeDeleteAll
                0x000000004016f24b                SeDelete
                0x000000004016f2f8                SeAdd
                0x000000004016f347                SeInsert
                0x000000004016f469                SeInsertStr
                0x000000004016f4b0                SeClearFifo
                0x000000004016f4e1                SeAdjustBufSize
                0x000000004016f50a                SeMemSize
                0x000000004016f541                SeFree
                0x000000004016f573                SeFreeStack
                0x000000004016f590                SeFreeList
                0x000000004016f5ad                SeFreeFifo
                0x000000004016f5c9                SeFreeQueue
                0x000000004016f5e6                SeFreeBufWithoutBuffer
                0x000000004016f5fa                SeFreeBuf
                0x000000004016f616                SeIsLittleEndian
                0x000000004016f61c                SeIsBigEndian
                0x000000004016f622                SeCmp
                0x000000004016f68c                SeCmpBuf
                0x000000004016f6c8                SeCmpEx
                0x000000004016f6fa                SeCopy
                0x000000004016f71e                SeCopyToArray
                0x000000004016f73e                SeToArray
                0x000000004016f77a                SeWriteFifo
                0x000000004016f7fb                SeInsertQueue
                0x000000004016f82e                SeReadFifo
                0x000000004016f90e                SeGetNext
                0x000000004016f956                SeGetNextInt
                0x000000004016f980                SePeekFifo
                0x000000004016f9c2                SePeekNext
                0x000000004016fa02                SeWriteBuf
                0x000000004016fa68                SeReadDump
                0x000000004016face                SeAddBufStr
                0x000000004016fb01                SeWriteBufInt64
                0x000000004016fb42                SeWriteBufInt
                0x000000004016fb80                SeWriteBufStr
                0x000000004016fbce                SeWriteBufBuf
                0x000000004016fbed                SeWriteBufLine
                0x000000004016fc39                SeMemToBuf
                0x000000004016fc85                SeCloneBuf
                0x000000004016fca6                SeRandBuf
                0x000000004016fcdf                SeSwap
                0x000000004016fd38                SeClone
                0x000000004016fd6f                SeInsertQueueInt
                0x000000004016fda0                SeZero
                0x000000004016fdc0                SeReadBuf
                0x000000004016fe4f                SeReadBufInt64
                0x000000004016fe8f                SeReadBufInt
                0x000000004016fecb                SeReadBufStr
                0x000000004016ff74                SeReadBufFromBuf
                0x000000004016ffea                SeReadRemainBuf
                0x0000000040170017                SeZeroMalloc
                0x0000000040170040                SeB64Encode
                0x00000000401701fc                SeB64Decode
                0x00000000401703db                SeNewStack
                0x0000000040170409                SeNewQueue
                0x0000000040170430                SeNewList
                0x0000000040170476                SeCloneList
                0x00000000401704c4                SeBuildICMPv6OptionValue
                0x000000004017053d                SeBuildICMPv6Options
                0x00000000401705eb                SeParseICMPv6Options
                0x00000000401706bb                SeFreePacketList
                0x00000000401706f7                SeFreePacketListWithoutBuffer
                0x0000000040170733                SeGetNextHeaderFromQueue
                0x0000000040170752                SeBuildAndAddIPv6PacketOptionHeader
                0x00000000401707d7                SeBuildIPv6Packet
                0x0000000040170998                SeBuildIPv6PacketWithFragment
                0x0000000040170b3e                SeParseIPv6ExtHeader
                0x0000000040170c22                SeParseIPv6Packet
                0x0000000040170c7f                SeParsePacketL3IPv6
                0x0000000040170cb0                SeParsePacketL3IPv4
                0x0000000040170d54                SeParsePacketL3ARPv4
                0x0000000040170d7c                SeParsePacketL2
                0x0000000040170e01                SeFreePacket
                0x0000000040170e15                SeParsePacket
                0x0000000040170e9b                SeSecCmpIkeSa
                0x0000000040170f6a                SeSecCalcP2Iv
                0x0000000040171006                SeSecCalcP1Iv
                0x00000000401710b8                SeSecCalcKEYMATFull
                0x00000000401711c5                SeSecCalcKEYMAT
                0x0000000040171275                SeSecCalcKa
                0x0000000040171343                SeSecCalcP1KeySet
                0x000000004017156b                SeSecForceReconnect
                0x00000000401715a0                SeSecLifeSeconds64bit
                0x00000000401715bb                SeSecGetIPsecSa
                0x0000000040171601                SeSecNewIkeSa
                0x000000004017169d                SeSecFreeP1KeySet
                0x00000000401716df                SeSecGenIkeSaMessageId
                0x000000004017174a                SeSecGenIkeSaInitCookie
                0x00000000401717b5                SeSecInitSaList
                0x00000000401717e3                SeSecSearchIPsecSaBySpi
                0x0000000040171871                SeSecSearchIkeSaBySpi
                0x0000000040171935                SeSecSearchIkeSa
                0x00000000401719f2                SeSecNewSpi
                0x0000000040171a0c                SeSecGenIPsecSASpi
                0x0000000040171a77                SeSecStrToAuthMethod
                0x0000000040171ad7                SeSecTick
                0x0000000040171af5                SeSecCheckIkeSaExpires
                0x0000000040171b9a                SeSecCheckIPsecSaExpires
                0x0000000040171c43                SeSecSetTimerCallback
                0x0000000040171c6a                SeSecAddTimer
                0x0000000040171c90                SeSecRecvMain6
                0x0000000040171ed1                SeSecNewIPsecSa
                0x0000000040172024                SeSecDoInterval
                0x000000004017207d                SeSecSetRecvUdpCallback
                0x00000000401720a4                SeSecSetRecvEspCallback
                0x00000000401720cb                SeSecSetRecvVirtualIpCallback
                0x00000000401720f2                SeSecSendUdp
                0x000000004017214b                SeSecSendMain1
                0x0000000040172534                SeSecSendMain3
                0x000000004017262f                SeSecRecvMain2
                0x00000000401726e5                SeSecSendMain5
                0x0000000040172983                SeSecRecvMain4
                0x0000000040172b6e                SeSecSendIkeSaMsgInfo
                0x0000000040172dc4                SeSecSendIkeSaMsgInfoSimple
                0x0000000040172e1e                SeSecSendIkeSaDeleteMsg
                0x0000000040172ea4                SeSecSendIPsecSaDeleteMsg
                0x0000000040172f19                SeSecFreeIPsecSa
                0x0000000040172f8a                SeSecProcessIkeSaMsgInfo
                0x000000004017329e                SeSecDeleteExpiredIPsecSa
                0x0000000040173346                SeSecFreeIkeSa
                0x00000000401734f1                SeSecDeleteExpiredIkeSa
                0x000000004017364d                SeSecFreeSaList
                0x00000000401736cb                SeSecFreeMain
                0x00000000401736df                SeSecFree
                0x0000000040173702                SeSecSendIkeSaMsgPhase2FinalHash
                0x000000004017388d                SeSecProcessIkeSaMsgPhase2
                0x0000000040173cc8                SeSecSendIkeSaMsgPhase2
                0x0000000040174186                SeSecRecvAggr
                0x00000000401749b0                SeSecProcessIkeSaMsgPhase1
                0x0000000040174a04                SeSecProcessIkeSaMsg
                0x0000000040174a55                SeSecUdpRecvCallback
                0x0000000040174cce                SeSecSendAggr
                0x00000000401752ce                SeSecStartVpnConnect
                0x00000000401752f8                SeSecProcessMain
                0x00000000401753d4                SeSecInitMain
                0x00000000401753ed                SeSecInit
                0x00000000401754ff                SeSecTimerCallback
                0x0000000040175516                SeSecSendEsp
                0x0000000040175558                SeSecVirtualIpRecvCallback
                0x000000004017575e                SeSecSendVirtualIp
                0x0000000040175791                SeSecEspRecvCallback
                0x0000000040175925                SeMakeCharArray
                0x000000004017595e                SeFreeToken
                0x00000000401759ab                SeNullTokenList
                0x00000000401759d2                SeDefaultTokenSplitChars
                0x00000000401759d8                Se4BitToHex
                0x00000000401759e8                SeHexTo4Bit
                0x0000000040175a1c                SeStrCmp
                0x0000000040175a9e                SeStrnCmp
                0x0000000040175b39                SeToUpper
                0x0000000040175b46                SeStrCmpi
                0x0000000040175bd6                SeStrnCmpi
                0x0000000040175c83                SeToLower
                0x0000000040175c90                SeStrCheckLen
                0x0000000040175cd2                SeStrCheckSize
                0x0000000040175ceb                SeStrLen
                0x0000000040175d19                SeReadNextLine
                0x0000000040175dcf                SeIsAllLowerStr
                0x0000000040175e3e                SeIsAllUpperStr
                0x0000000040175ead                SeIsCharInStr
                0x0000000040175f08                SeNormalizeCrlf
                0x0000000040175faa                SeEndWith
                0x0000000040175ffe                SeTrimCrlf
                0x0000000040176041                SeHexToInt64
                0x00000000401760c8                SeHexToInt
                0x000000004017614a                SeToInt
                0x000000004017619f                SeToInt64
                0x00000000401761fb                SeStrLower
                0x0000000040176230                SeStrUpper
                0x0000000040176265                SeStrCat
                0x00000000401762ee                SeStrCpy
                0x000000004017639a                SeStrToBin
                0x000000004017649f                SeStrToBinEx
                0x0000000040176505                SeStrToMac
                0x000000004017651b                SeSearchStrEx
                0x0000000040176681                SeSearchStr
                0x0000000040176694                SeSearchStri
                0x00000000401766a7                SeCalcReplaceStrEx
                0x000000004017674e                SeReplaceStrEx
                0x00000000401768a0                SeReplaceStri
                0x00000000401768b4                SeReplaceStr
                0x00000000401768c8                SeCopyStr
                0x0000000040176906                SeUniqueToken
                0x0000000040176a5d                SeParseTokenWithNullStr
                0x0000000040176baf                SeParseToken
                0x0000000040176d47                SeStartWith
                0x0000000040176dce                SeTrimRight
                0x0000000040176ec2                SeTrimLeft
                0x0000000040176f5e                SeTrim
                0x0000000040176f77                SeTrimCopy
                0x0000000040176f9a                SeIsEmptyStr
                0x0000000040176fd8                SeToHex64
                0x000000004017707b                SeToHex
                0x000000004017711b                SeToStr
                0x00000000401771bb                SeToStr64
                0x0000000040177274                SeToStr3
                0x000000004017739e                SeStrSize
                0x00000000401773b2                SeFormatEx
                0x0000000040177926                SeFormatArgs
                0x000000004017796b                SeFormat
                0x00000000401779a9                SeMacToStr
                0x00000000401779f1                SeBinToStrEx
                0x0000000040177a8d                SeBinToStr
                0x0000000040177b31                SeVpnRecvIpV4PacketCallback
                0x0000000040177b7b                SeVpnRecvIpV6PacketCallback
                0x0000000040177bc5                SeVpnInitIpStack
                0x0000000040177e60                SeVpnFreeIpStack
                0x0000000040177ef4                SeVpnMainInit
                0x0000000040177ff3                SeVpnMainFree
                0x000000004017800b                SeVpnRecvEtherPacket
                0x0000000040178081                SeVpnSendEtherPacket
                0x00000000401780b2                SeVpnMainProcRecvEtherPacket
                0x000000004017814d                SeVpnStatusChanged
                0x000000004017815b                SeVpnMainProcess
                0x0000000040178259                SeVpnMainHandler
                0x000000004017829a                SeVpnTimerCallback
                0x00000000401782b6                SeVpnEthRecvCallback
                0x00000000401782d2                SeVpnTick
                0x00000000401782e2                SeVpnAddTimer
                0x00000000401782fa                SeVpnDoInterval
                0x000000004017834b                SeVpnFreeConfig
                0x000000004017835f                SeVpnFree
                0x00000000401783a4                SeVpnLoadConfig
                0x000000004017976b                SeVpnInit
                0x000000004017986c                SeVpn4ClientSetTimerCallback
                0x000000004017987b                SeVpn4ClientSetRecvUdpCallback
                0x000000004017988a                SeVpn4ClientSetRecvEspCallback
                0x0000000040179899                SeVpn4ClientSetRecvVirtualIpCallback
                0x00000000401798a8                SeVpn4ClientSendUdp
                0x0000000040179917                SeVpn4ClientSendEsp
                0x0000000040179972                SeVpn4ClientSendVirtualIp
                0x00000000401799a5                SeVpn4IPsecSendPing
                0x0000000040179ad5                SeVpn4IPsecInputFromPhysical
                0x0000000040179b96                SeVpn4IPsecInputFromVirtual
                0x0000000040179bf2                SeVpn4FreeIPsec
                0x0000000040179c0a                SeVpn4InitSecConfig
                0x0000000040179db9                SeVpn4InitIPsec
                0x0000000040179e65                SeVpn4DoInterval
                0x0000000040179e81                SeVpn4Tick
                0x0000000040179e9d                SeVpn4IPsecMainProc
                0x0000000040179f10                SeVpn4MainProc
                0x0000000040179f2f                SeVpn4ClientGetTick
                0x0000000040179f48                SeVpn4SetTimer
                0x0000000040179f5f                SeVpn4ClientAddTimer
                0x0000000040179f7b                SeVpn4DhcpSendResponse
                0x000000004017a07f                SeVpn4DhcpOptionsToBuf
                0x000000004017a13b                SeVpn4NewDhcpOption
                0x000000004017a18d                SeVpn4DhcpBuildDhcpOptionList
                0x000000004017a377                SeVpn4DhcpSearchOption
                0x000000004017a3ae                SeVpn4DhcpFreeOptionList
                0x000000004017a3f4                SeVpn4DhcpParseOptionListMain
                0x000000004017a4e0                SeVpn4DhcpParseOptionList
                0x000000004017a5ca                SeVpn4DhcpServer
                0x000000004017a875                SeVpn4RecvPacketPhysical
                0x000000004017a92c                SeVpn4RecvPacketVirtual
                0x000000004017aad2                SeVpn4Init
                0x000000004017ab3a                SeVpn4Free
                0x000000004017ab5e                SeVpn6ClientSetTimerCallback
                0x000000004017ab6d                SeVpn6ClientSetRecvUdpCallback
                0x000000004017ab7c                SeVpn6ClientSetRecvEspCallback
                0x000000004017ab8b                SeVpn6ClientSetRecvVirtualIpCallback
                0x000000004017ab9a                SeVpn6ClientSendUdp
                0x000000004017ac0e                SeVpn6ClientSendEsp
                0x000000004017ac73                SeVpn6ClientSendVirtualIp
                0x000000004017aca6                SeVpn6IPsecSendPing
                0x000000004017ae74                SeVpn6UpdateGuestOsIpAddress
                0x000000004017af28                SeVpn6IPsecInputFromPhysical
                0x000000004017afe9                SeVpn6IPsecInputFromVirtual
                0x000000004017b022                SeVpn6InitSecConfig
                0x000000004017b1eb                SeVpn6InitIPsec
                0x000000004017b2a1                SeVpn6FreeIPsec
                0x000000004017b2b9                SeVpn6DoInterval
                0x000000004017b2d5                SeVpn6Tick
                0x000000004017b2f1                SeVpn6IPsecMainProc
                0x000000004017b369                SeVpn6MainProc
                0x000000004017b388                SeVpn6ClientGetTick
                0x000000004017b3a1                SeVpn6SetTimer
                0x000000004017b3b8                SeVpn6ClientAddTimer
                0x000000004017b3d4                SeVpn6RecvPacketPhysical
                0x000000004017b441                SeVpn6RecvPacketVirtual
                0x000000004017b548                SeVpn6Init
                0x000000004017b5c1                SeVpn6Free
                0x000000004017b5e5                crypt_sys_rsa_sign
                0x000000004017b94c                msg_usb_bulk_read
                0x000000004017b9b6                msg_usb_bulk_write
                0x000000004017ba20                msg_usb_claim_interface
                0x000000004017ba6e                msg_usb_close
                0x000000004017bac9                msg_usb_control_msg
                0x000000004017bb50                msg_usb_find_busses
                0x000000004017bb91                msg_usb_find_devices
                0x000000004017bbd2                msg_usb_get_busses
                0x000000004017bc47                msg_usb_get_string_simple
                0x000000004017bcac                msg_usb_init
                0x000000004017bcc4                msg_usb_open
                0x000000004017bd45                msg_usb_release_interface
                0x000000004017bd93                msg_usb_reset
                0x000000004017bdda                IDMan_StReadSetData
                0x000000004017c275                idman_user_init
                0x000000004017c2b7                IDMan_IPIdPassListMalloc
                0x000000004017c38e                IDMan_IPRetJudgment
                0x000000004017c415                IDMan_IPInitializeReader
                0x000000004017c449                IDMan_IPInitialize
                0x000000004017c53f                IDMan_IPFinalize
                0x000000004017c588                IDMan_IPFinalizeReader
                0x000000004017c5ad                IDMan_getMemoryFree
                0x000000004017c5f4                IDMan_PaddingParamChk
                0x000000004017c6e7                IDMan_CmPadding
                0x000000004017c85d                IDMan_CmPadding2
                0x000000004017c8ee                IDMan_IPgetCertPKCS
                0x000000004017cf53                IDMan_IPgetCertIdxPKCS
                0x000000004017d40a                IDMan_IPCheckPKC
                0x000000004017d62f                IDMan_CheckCardStatus
                0x000000004017d65c                IDMan_IPgSParamChk
                0x000000004017d78b                IDMan_IPgIdxSParamChk
                0x000000004017d7b2                IDMan_IPgetPrivateKey
                0x000000004017d97b                IDMan_IPgetHash
                0x000000004017da56                IDMan_IPCrSignature
                0x000000004017dbb1                IDMan_generateSignature
                0x000000004017dcea                IDMan_generateSignatureByIndex
                0x000000004017de11                IDMan_EncryptByIndex
                0x000000004017df4f                IDMan_IPgCParamChk
                0x000000004017e044                IDMan_getCertificate
                0x000000004017e398                IDMan_IPgCIndexParamChk
                0x000000004017e3bd                IDMan_getCertificateByIndex
                0x000000004017e6f2                IDMan_getStaticPassword
                0x000000004017ea41                IDMan_IPuAPKCS11ParamChk
                0x000000004017eb4c                IDMan_IPuAPKCS11IdxParamChk
                0x000000004017eb60                IDMan_IPgetCertPkeyPKCSx
                0x000000004017f008                IDMan_IPgetCertPkeyIdxPKCSx
                0x000000004017f401                IDMan_IPgetCertPkeyPKCSy
                0x000000004017f544                IDMan_IPCheckCrlPkcX
                0x000000004017f674                IDMan_IPgetMakeRandData
                0x000000004017f6e0                IDMan_IPMkRandHash
                0x000000004017f785                IDMan_IPgetPrivateKeyPKCSx
                0x000000004017f94a                IDMan_IPSignatureVerify
                0x000000004017fac6                IDMan_userAuthPKCS11
                0x000000004017ffb7                IDMan_userAuthPKCS11ByIndex
                0x00000000401804ab                IDMan_IPvSParamChk
                0x0000000040180632                IDMan_IPvSIdxParamChk
                0x0000000040180686                IDMan_IPMkPublicKeyObj
                0x00000000401807d4                IDMan_IPCheckSignature
                0x0000000040180993                IDMan_verifySignature
                0x0000000040180b7f                IDMan_verifySignatureByIndex
                0x0000000040180d58                CardEstablishContext
                0x0000000040180d73                CardReleaseContext
                0x0000000040180d9a                CardListReaders
                0x0000000040180db5                CardConnect
                0x0000000040180dfc                CardDisconnect
                0x0000000040180e1c                CardStatus
                0x0000000040180e7b                CardTransmit
                0x0000000040180ec6                SelectFileDF
                0x0000000040180f8f                SelectFileEF
                0x0000000040181053                Verify
                0x0000000040181137                InternalAuth
                0x0000000040181242                ReadBinary
                0x000000004018145e                UpdateBinary
                0x0000000040181557                GetICCardData
                0x000000004018189e                GetUlByTxt
                0x00000000401818d5                GetVerByTex
                0x00000000401819b6                GetUlByByte
                0x00000000401819f7                TransHex2Tex
                0x0000000040181a81                TransTex2Hex
                0x0000000040181b25                GetLength
                0x0000000040181b86                SetLength
                0x0000000040181be5                GetTlvByBuf
                0x0000000040181e86                GetDirDataByTlv
                0x0000000040181f6f                GetOdfDataByTlv
                0x00000000401820e3                GetTokenDataByTlv
                0x00000000401824e0                AddObjTblByTlv
                0x0000000040182b3e                AddCertDataByBuf
                0x0000000040182c2d                AddIdPassDataByBuf
                0x0000000040182fae                GetValueData
                0x0000000040183350                AddElem
                0x00000000401833da                SetElem
                0x000000004018348a                GetElem
                0x00000000401834c4                GetAttrValType
                0x0000000040183628                DestroyAttribute
                0x0000000040183666                DestroyTlvData
                0x0000000040183684                DestroyElem
                0x00000000401836f9                DestroyList
                0x000000004018373b                DestroyTokenData
                0x0000000040183794                DestroySlotData
                0x00000000401837c9                DestroySessionData
                0x0000000040183800                DelElem
                0x000000004018386a                C_GetFunctionList
                0x0000000040183877                C_Initialize
                0x00000000401839e8                C_Finalize
                0x0000000040183a87                C_GetInfo
                0x0000000040183b09                C_GetSlotList
                0x00000000401842d7                C_GetSlotInfo
                0x00000000401843bd                C_GetTokenInfo
                0x0000000040184bf5                C_GetMechanismList
                0x0000000040184cc1                C_GetMechanismInfo
                0x0000000040184d77                C_OpenSession
                0x0000000040184ef7                C_CloseSession
                0x0000000040184fc7                C_CloseAllSessions
                0x00000000401850d7                C_GetSessionInfo
                0x0000000040185151                C_Login
                0x000000004018559e                C_Logout
                0x0000000040185655                C_FindObjectsInit
                0x00000000401858b9                C_FindObjects
                0x0000000040185dff                C_FindObjectsFinal
                0x0000000040185e7b                C_GetAttributeValue
                0x00000000401861c2                C_SignInit
                0x000000004018628e                C_Sign
                0x00000000401865c8                C_DigestInit
                0x0000000040186641                C_DigestUpdate
                0x00000000401866c5                C_DigestFinal
                0x0000000040186811                C_VerifyInit
                0x00000000401868dd                C_Verify
                0x0000000040186a51                C_CreateObject
                0x0000000040186ce8                C_DestroyObject
                0x0000000040186da8                C_SetAttributeValue
                0x0000000040187919                C_GetCardStatus
                0x00000000401879ac                IDMan_StFree
                0x00000000401879c0                IDMan_StMemcpy
                0x00000000401879e4                IDMan_StMemset
                0x0000000040187a00                IDMan_StMalloc
                0x0000000040187a3a                IDMan_StMemcmp
                0x0000000040187a84                IDMan_StStrlen
                0x0000000040187aa0                IDMan_StStrcat
                0x0000000040187ada                IDMan_StStrchr
                0x0000000040187b0d                IDMan_StStrcpy
                0x0000000040187b34                IDMan_StStrcmp
                0x0000000040187b6f                StIsspace
                0x0000000040187bcd                StIsdigit
                0x0000000040187bda                IDMan_StAtoi
                0x0000000040187c2e                IDMan_StAtol
                0x0000000040187c8c                IDMan_CmMkHash
                0x0000000040187e8f                IDMan_CmChgRSA
                0x0000000040188006                IDMan_CmGetDN
                0x000000004018826c                IDMan_CmGetCertificateSign
                0x000000004018845b                IDMan_CmGetPublicKey
                0x000000004018860c                IDMan_CmMakeRand
                0x00000000401886a4                IDMan_CmCheckCRL
                0x00000000401889f1                IDMan_SCardEstablishContext
                0x0000000040188a11                IDMan_SCardReleaseContext
                0x0000000040188a1f                IDMan_SCardListReaders
                0x0000000040188a4d                IDMan_SCardConnect
                0x0000000040188a7b                IDMan_SCardDisconnect
                0x0000000040188a89                IDMan_SCardStatus
                0x0000000040188b02                IDMan_SCardSizeLongToChar
                0x0000000040188b43                IDMan_SCardSetBinay
                0x0000000040188e61                IDMan_SCardTransmit
                0x0000000040188ed0                EHDestroyEventHandler
                0x0000000040188f39                EHInitEventHandler
                0x0000000040188ff3                EHStatusHandler
                0x0000000040189183                HPSearchHotPluggables
                0x0000000040189493                PHGetProtocol
                0x00000000401899f5                PHSetProtocol
                0x0000000040189a50                RFAddReader
                0x0000000040189b68                RFRemoveReader
                0x0000000040189c26                RFReaderInfoById
                0x0000000040189c52                RFCheckReaderEventState
                0x0000000040189c86                SCardEstablishContext
                0x0000000040189d69                SCardListReaders
                0x0000000040189e00                SCardConnect
                0x000000004018a098                SCardDisconnect
                0x000000004018a24b                SCardBeginTransaction
                0x000000004018a29e                SCardEndTransaction
                0x000000004018a476                SCardStatus
                0x000000004018a69f                SCardReleaseContext
                0x000000004018a767                SCardTransmit
                0x000000004018a9b0                SetATR
                0x000000004018aca2                GetIFSCData
                0x000000004018acf3                GetBWICWIData
                0x000000004018ad81                IFDHCloseChannel
                0x000000004018adff                IFDHGetCapabilities
                0x000000004018ae40                IFDHSetProtocolParameters
                0x000000004018b915                IFDHPowerICC
                0x000000004018baf4                IFDHTransmitToICC
                0x000000004018bd9f                IFDHControl
                0x000000004018bea7                IFDHICCPresence
                0x000000004018bf4d                IFDHCreateChannel
                0x000000004018bfd5                FindBaudRateTable
                0x000000004018c011                ExchangePPSData
                0x000000004018c72b                InitLeaderCardProtocol
                0x000000004018c860                T1XfrBlockTPDU
                0x000000004018cfc3                T1NegociateIFSD
                0x000000004018d121                CardStateConfirm
                0x000000004018d152                GetCardStatus
                0x000000004018d258                PowerOn
                0x000000004018d3c5                PowerOff
                0x000000004018d517                CardMechanical
                0x000000004018d629                TransmitPPS
                0x000000004018d76a                TransmitCommand
                0x000000004018d818                ReceiveReply
                0x000000004018d9a3                ReadDataT0
                0x000000004018da52                BlockSendCardT1
                0x000000004018dc71                T0XfrBlockCHAR
                0x000000004018e185                T0XfrBlockTPDU
                0x000000004018e1f5                T1XfrBlockExtendedAPDU
                0x000000004018e50a                OpenUSB
                0x000000004018e8d0                WriteUSB
                0x000000004018e8f2                ReadUSB
                0x000000004018e93f                CloseUSB
                0x000000004018ead0                net_register
                0x000000004018eb3a                net_new_nic
                0x000000004018ec02                net_init
                0x000000004018ec35                net_start
                0x000000004018ec7f                net_premap_recvbuf
                0x000000004018eca0                lwip_htons
                0x000000004018eca7                lwip_ntohs
                0x000000004018ecae                lwip_htonl
                0x000000004018ecd4                lwip_ntohl
                0x0000000040190017                dhcp_set_struct
                0x00000000401900bf                dhcp_cleanup
                0x00000000401900fe                dhcp_inform
                0x0000000040190220                dhcp_network_changed
                0x0000000040190271                dhcp_renew
                0x0000000040190336                dhcp_coarse_tmr
                0x00000000401903ba                dhcp_release
                0x00000000401904c1                dhcp_fine_tmr
                0x00000000401905a3                dhcp_stop
                0x000000004019061e                dhcp_start
                0x0000000040190e9c                dns_setserver
                0x0000000040190ecf                dns_init
                0x0000000040190f48                dns_getserver
                0x0000000040190f61                dns_tmr
                0x0000000040190f9d                dns_gethostbyname
                0x00000000401911c3                lwip_init
                0x00000000401911ef                mem_init
                0x0000000040191241                mem_free
                0x00000000401913bc                mem_trim
                0x00000000401914fa                mem_malloc
                0x0000000040191681                mem_calloc
                0x00000000401916b4                memp_init
                0x0000000040191736                memp_malloc
                0x00000000401917a0                memp_free
                0x00000000401917e4                netif_init
                0x00000000401917e6                netif_find
                0x000000004019182c                netif_set_ipaddr
                0x00000000401918b2                netif_set_addr
                0x00000000401918ee                netif_add
                0x000000004019199a                netif_set_gw
                0x00000000401919ac                netif_set_netmask
                0x00000000401919be                netif_set_default
                0x00000000401919c6                netif_set_up
                0x00000000401919f0                netif_set_down
                0x0000000040191a13                netif_remove
                0x0000000040191a84                netif_set_link_up
                0x0000000040191acb                netif_set_link_down
                0x0000000040191adb                pbuf_free_ooseq
                0x0000000040191b26                pbuf_alloced_custom
                0x0000000040191bc7                pbuf_header
                0x0000000040191cb5                pbuf_free
                0x0000000040191dc1                pbuf_alloc
                0x00000000401920aa                pbuf_realloc
                0x00000000401921df                pbuf_clen
                0x00000000401921fc                pbuf_ref
                0x0000000040192208                pbuf_cat
                0x0000000040192295                pbuf_chain
                0x00000000401922a8                pbuf_dechain
                0x000000004019235b                pbuf_copy
                0x0000000040192524                pbuf_copy_partial
                0x0000000040192601                pbuf_take
                0x000000004019270f                pbuf_coalesce
                0x000000004019277e                pbuf_get_at
                0x00000000401927bb                pbuf_memcmp
                0x0000000040192851                pbuf_memfind
                0x00000000401928b4                pbuf_strstr
                0x0000000040192908                raw_input
                0x00000000401929b1                raw_bind
                0x00000000401929c7                raw_connect
                0x00000000401929de                raw_recv
                0x00000000401929e7                raw_sendto
                0x0000000040192b0f                raw_send
                0x0000000040192b21                raw_remove
                0x0000000040192b76                raw_new
                0x0000000040192c47                tcp_init
                0x0000000040192c49                tcp_bind
                0x0000000040192d24                tcp_listen_with_backlog
                0x0000000040192e50                tcp_update_rcv_ann_wnd
                0x0000000040192ecf                tcp_recved
                0x0000000040192f54                tcp_seg_free
                0x0000000040192f7b                tcp_segs_free
                0x0000000040192f94                tcp_setprio
                0x0000000040192f99                tcp_seg_copy
                0x0000000040192fe2                tcp_arg
                0x0000000040192fe7                tcp_recv
                0x0000000040193017                tcp_sent
                0x0000000040193047                tcp_err
                0x0000000040193077                tcp_accept
                0x000000004019307c                tcp_poll
                0x00000000401930af                tcp_pcb_purge
                0x0000000040193130                tcp_slowtmr
                0x0000000040193690                tcp_pcb_remove
                0x0000000040193a1f                tcp_close
                0x0000000040193a3c                tcp_recv_null
                0x0000000040193a70                tcp_process_refused_data
                0x0000000040193b31                tcp_fasttmr
                0x0000000040193ba9                tcp_tmr
                0x0000000040193bd0                tcp_shutdown
                0x0000000040193c4f                tcp_abandon
                0x0000000040193d53                tcp_abort
                0x0000000040193d66                tcp_next_iss
                0x0000000040193d79                tcp_alloc
                0x0000000040193f1a                tcp_new
                0x0000000040193f2d                tcp_eff_send_mss
                0x0000000040193f61                tcp_connect
                0x0000000040194112                tcp_debug_state_str
                0x00000000401950d7                tcp_input
                0x0000000040196191                tcp_write
                0x0000000040196917                tcp_enqueue_flags
                0x0000000040196aea                tcp_send_fin
                0x0000000040196b52                tcp_send_empty_ack
                0x0000000040196be8                tcp_output
                0x0000000040196fce                tcp_rst
                0x00000000401970dc                tcp_rexmit_rto
                0x0000000040197131                tcp_rexmit
                0x00000000401971c4                tcp_rexmit_fast
                0x0000000040197224                tcp_keepalive
                0x00000000401972ae                tcp_zero_window_probe
                0x00000000401973e4                udp_init
                0x00000000401973e6                udp_input
                0x00000000401976e5                udp_bind
                0x000000004019783e                udp_sendto_if
                0x00000000401979d8                udp_sendto
                0x0000000040197a20                udp_send
                0x0000000040197a36                udp_connect
                0x0000000040197abd                udp_disconnect
                0x0000000040197acf                udp_recv
                0x0000000040197ad8                udp_remove
                0x0000000040197b2d                udp_new
                0x0000000040197b7c                sys_timeout
                0x0000000040197c40                tcp_timer_needed
                0x0000000040197cc6                sys_timeouts_init
                0x0000000040197e1e                sys_untimeout
                0x0000000040197e8b                sys_check_timeouts
                0x0000000040197f14                sys_restart_timeouts
                0x0000000040197fb6                autoip_set_struct
                0x000000004019803c                autoip_start
                0x000000004019814f                autoip_network_changed
                0x0000000040198172                autoip_stop
                0x000000004019818d                autoip_tmr
                0x0000000040198334                autoip_arp_reply
                0x0000000040198487                inet_chksum_pseudo
                0x0000000040198571                inet_chksum_pseudo_partial
                0x00000000401986b4                inet_chksum
                0x00000000401986bf                inet_chksum_pbuf
                0x0000000040198754                ip_route
                0x0000000040198796                ip_input
                0x0000000040198a29                ip_output_if
                0x0000000040198bda                ip_output
                0x0000000040198d5e                icmp_input
                0x0000000040199010                icmp_dest_unreach
                0x0000000040199027                icmp_time_exceeded
                0x000000004019903e                ip4_addr_isbroadcast
                0x000000004019907c                ip4_addr_netmask_valid
                0x00000000401990bf                ipaddr_aton
                0x000000004019929a                ipaddr_addr
                0x00000000401992b9                ipaddr_ntoa_r
                0x00000000401993ab                ipaddr_ntoa
                0x000000004019969e                ip_reass_tmr
                0x00000000401996e6                ip_reass
                0x0000000040199c3d                ip_frag
                0x000000004019a17b                etharp_tmr
                0x000000004019a1d0                etharp_cleanup_netif
                0x000000004019a205                etharp_find_addr
                0x000000004019a28a                etharp_raw
                0x000000004019a3fe                etharp_request
                0x000000004019a4bc                etharp_query
                0x000000004019a6fd                etharp_output
                0x000000004019a8c9                ethernet_input
                0x000000004019abf4                ip_sys_now
                0x000000004019ac22                sys_now
                0x000000004019ad10                ip_main_input
                0x000000004019aec7                tcpip_begin
                0x000000004019aed5                ip_main_init
                0x000000004019b0e1                ip_main_task
                0x000000004019b495                net_main_task_add
                0x000000004019b592                net_main_send
                0x000000004019b5c7                net_main_poll
                0x000000004019b5e4                net_main_get_mac_address
                0x000000004019b61b                net_main_set_recv_arg
                0x000000004019b9a8                echo_server_init
                0x000000004019bad5                echo_client_send
                0x000000004019bb2b                echo_client_init
                0x000000004019bd09                AES_set_encrypt_key
                0x000000004019c105                AES_set_decrypt_key
                0x000000004019c345                AES_encrypt
                0x000000004019c7e7                AES_decrypt
                0x000000004019cc5a                BIO_set
                0x000000004019cd14                BIO_new
                0x000000004019cd88                BIO_free
                0x000000004019ce39                BIO_vfree
                0x000000004019ce47                BIO_clear_flags
                0x000000004019ce4d                BIO_test_flags
                0x000000004019ce53                BIO_set_flags
                0x000000004019ce57                BIO_get_callback
                0x000000004019ce5c                BIO_set_callback
                0x000000004019ce61                BIO_set_callback_arg
                0x000000004019ce66                BIO_get_callback_arg
                0x000000004019ce6b                BIO_method_name
                0x000000004019ce73                BIO_method_type
                0x000000004019ce79                BIO_read
                0x000000004019cf67                BIO_write
                0x000000004019d05e                BIO_puts
                0x000000004019d13f                BIO_gets
                0x000000004019d234                BIO_indent
                0x000000004019d27c                BIO_ctrl
                0x000000004019d32d                BIO_int_ctrl
                0x000000004019d344                BIO_ptr_ctrl
                0x000000004019d371                BIO_callback_ctrl
                0x000000004019d431                BIO_ctrl_pending
                0x000000004019d44e                BIO_ctrl_wpending
                0x000000004019d46b                BIO_push
                0x000000004019d4ac                BIO_pop
                0x000000004019d514                BIO_get_retry_BIO
                0x000000004019d53a                BIO_get_retry_reason
                0x000000004019d53e                BIO_find_type
                0x000000004019d57c                BIO_next
                0x000000004019d58c                BIO_free_all
                0x000000004019d5b8                BIO_dup_chain
                0x000000004019d6a4                BIO_copy_next_retry
                0x000000004019d6b8                BIO_get_ex_new_index
                0x000000004019d6da                BIO_set_ex_data
                0x000000004019d6ec                BIO_get_ex_data
                0x000000004019d6fe                BIO_number_read
                0x000000004019d70e                BIO_number_written
                0x000000004019d865                BN_set_params
                0x000000004019d8bb                BN_get_params
                0x000000004019d8ee                BN_value_one
                0x000000004019d8f4                BN_options
                0x000000004019d93f                BN_num_bits_word
                0x000000004019d995                BN_num_bits
                0x000000004019d9b6                BN_clear_free
                0x000000004019da0e                BN_free
                0x000000004019da4b                BN_init
                0x000000004019da63                BN_new
                0x000000004019dace                bn_expand2
                0x000000004019db0f                BN_copy
                0x000000004019dbf3                BN_dup
                0x000000004019dc46                bn_dup_expand
                0x000000004019dcb1                BN_swap
                0x000000004019dd0f                BN_clear
                0x000000004019dd3f                BN_get_word
                0x000000004019dd5d                BN_set_word
                0x000000004019ddb0                BN_bin2bn
                0x000000004019dee6                BN_bn2bin
                0x000000004019df4a                BN_ucmp
                0x000000004019dfa1                BN_cmp
                0x000000004019e053                BN_set_bit
                0x000000004019e102                BN_clear_bit
                0x000000004019e17e                BN_is_bit_set
                0x000000004019e1bd                BN_mask_bits
                0x000000004019e248                BN_set_negative
                0x000000004019e262                bn_cmp_words
                0x000000004019e2c0                bn_cmp_part_words
                0x000000004019e347                BN_bn2hex
                0x000000004019e42a                BN_bn2dec
                0x000000004019e62c                BN_hex2bn
                0x000000004019e800                BN_dec2bn
                0x000000004019e9a7                BN_asc2bn
                0x000000004019ea0d                BN_print
                0x000000004019ecc6                BN_rand
                0x000000004019ece3                BN_pseudo_rand
                0x000000004019eece                BN_bntest_rand
                0x000000004019eeeb                BN_rand_range
                0x000000004019ef04                BN_pseudo_rand_range
                0x000000004019ef1d                BN_mod_word
                0x000000004019ef76                BN_div_word
                0x000000004019f04b                BN_sub_word
                0x000000004019f143                BN_add_word
                0x000000004019f234                BN_mul_word
                0x000000004019f6b6                BIO_s_mem
                0x000000004019f6bc                BIO_new_mem_buf
                0x000000004019f731                BUF_MEM_new
                0x000000004019f790                BUF_MEM_free
                0x000000004019f7c3                BUF_MEM_grow
                0x000000004019f8d7                BUF_MEM_grow_clean
                0x000000004019fa04                BUF_memdup
                0x000000004019fa6d                BUF_strlcpy
                0x000000004019fad8                BUF_strndup
                0x000000004019fb46                BUF_strdup
                0x000000004019fb68                BUF_strlcat
                0x000000004019fba3                BUF_reverse
                0x000000004019fbf5                OpenSSL_add_all_ciphers
                0x00000000401a0095                OpenSSL_add_all_digests
                0x00000000401a01fb                CRYPTO_get_new_lockid
                0x00000000401a029d                CRYPTO_num_locks
                0x00000000401a02a3                CRYPTO_get_dynlock_create_callback
                0x00000000401a02ab                CRYPTO_get_dynlock_lock_callback
                0x00000000401a02b3                CRYPTO_get_dynlock_destroy_callback
                0x00000000401a02bb                CRYPTO_set_dynlock_create_callback
                0x00000000401a02c3                CRYPTO_set_dynlock_lock_callback
                0x00000000401a02cb                CRYPTO_set_dynlock_destroy_callback
                0x00000000401a02d3                CRYPTO_get_locking_callback
                0x00000000401a02db                CRYPTO_get_add_lock_callback
                0x00000000401a02e3                CRYPTO_set_locking_callback
                0x00000000401a02eb                CRYPTO_set_add_lock_callback
                0x00000000401a02f3                CRYPTO_THREADID_set_numeric
                0x00000000401a0319                CRYPTO_THREADID_set_pointer
                0x00000000401a0342                CRYPTO_THREADID_set_callback
                0x00000000401a035f                CRYPTO_THREADID_get_callback
                0x00000000401a0367                CRYPTO_THREADID_current
                0x00000000401a03a2                CRYPTO_THREADID_cmp
                0x00000000401a03b5                CRYPTO_THREADID_cpy
                0x00000000401a03c8                CRYPTO_THREADID_hash
                0x00000000401a03cd                CRYPTO_get_id_callback
                0x00000000401a03d5                CRYPTO_set_id_callback
                0x00000000401a03dd                CRYPTO_thread_id
                0x00000000401a03fa                CRYPTO_get_lock_name
                0x00000000401a0442                OPENSSL_ia32cap_loc
                0x00000000401a0448                OPENSSL_cpuid_setup
                0x00000000401a044a                OPENSSL_showfatal
                0x00000000401a049f                OPENSSL_isservice
                0x00000000401a04a5                OpenSSLDie
                0x00000000401a04ca                CRYPTO_lock
                0x00000000401a053e                CRYPTO_get_new_dynlockid
                0x00000000401a0756                CRYPTO_destroy_dynlockid
                0x00000000401a084d                CRYPTO_get_dynlock_value
                0x00000000401a08ff                CRYPTO_add_lock
                0x00000000401a095b                OPENSSL_stderr
                0x00000000401a0961                CRYPTO_memcmp
                0x00000000401a0990                DES_encrypt1
                0x00000000401a0d7f                DES_encrypt2
                0x00000000401a1076                DES_encrypt3
                0x00000000401a11c7                DES_decrypt3
                0x00000000401a131b                DES_ncbc_encrypt
                0x00000000401a197d                DES_ede3_cbc_encrypt
                0x00000000401a23f4                DH_generate_key
                0x00000000401a2407                DH_compute_key
                0x00000000401a241a                DH_OpenSSL
                0x00000000401a2420                DH_set_default_method
                0x00000000401a2428                DH_get_default_method
                0x00000000401a2456                DH_set_method
                0x00000000401a2495                DH_new_method
                0x00000000401a25b7                DH_new
                0x00000000401a25ca                DH_free
                0x00000000401a269e                DH_up_ref
                0x00000000401a26ce                DH_get_ex_new_index
                0x00000000401a26f0                DH_set_ex_data
                0x00000000401a2702                DH_get_ex_data
                0x00000000401a2714                DH_size
                0x00000000401a3482                EVP_aes_128_cbc
                0x00000000401a3488                EVP_aes_128_cfb128
                0x00000000401a348e                EVP_aes_128_ofb
                0x00000000401a3494                EVP_aes_128_ecb
                0x00000000401a349a                EVP_aes_192_cbc
                0x00000000401a34a0                EVP_aes_192_cfb128
                0x00000000401a34a6                EVP_aes_192_ofb
                0x00000000401a34ac                EVP_aes_192_ecb
                0x00000000401a34b2                EVP_aes_256_cbc
                0x00000000401a34b8                EVP_aes_256_cfb128
                0x00000000401a34be                EVP_aes_256_ofb
                0x00000000401a34c4                EVP_aes_256_ecb
                0x00000000401a34ca                EVP_aes_128_cfb1
                0x00000000401a34d0                EVP_aes_192_cfb1
                0x00000000401a34d6                EVP_aes_256_cfb1
                0x00000000401a34dc                EVP_aes_128_cfb8
                0x00000000401a34e2                EVP_aes_192_cfb8
                0x00000000401a34e8                EVP_aes_256_cfb8
                0x00000000401a3806                EVP_bf_cbc
                0x00000000401a380c                EVP_bf_cfb64
                0x00000000401a3812                EVP_bf_ofb
                0x00000000401a3818                EVP_bf_ecb
                0x00000000401a3b36                EVP_cast5_cbc
                0x00000000401a3b3c                EVP_cast5_cfb64
                0x00000000401a3b42                EVP_cast5_ofb
                0x00000000401a3b48                EVP_cast5_ecb
                0x00000000401a4150                EVP_des_cbc
                0x00000000401a4156                EVP_des_cfb64
                0x00000000401a415c                EVP_des_ofb
                0x00000000401a4162                EVP_des_ecb
                0x00000000401a4168                EVP_des_cfb1
                0x00000000401a416e                EVP_des_cfb8
                0x00000000401a4851                EVP_des_ede_cbc
                0x00000000401a4857                EVP_des_ede_cfb64
                0x00000000401a485d                EVP_des_ede_ofb
                0x00000000401a4863                EVP_des_ede_ecb
                0x00000000401a4869                EVP_des_ede3_cbc
                0x00000000401a486f                EVP_des_ede3_cfb64
                0x00000000401a4875                EVP_des_ede3_ofb
                0x00000000401a487b                EVP_des_ede3_ecb
                0x00000000401a4881                EVP_des_ede3_cfb1
                0x00000000401a4887                EVP_des_ede3_cfb8
                0x00000000401a488d                EVP_des_ede
                0x00000000401a4893                EVP_des_ede3
                0x00000000401a4bfd                EVP_idea_cbc
                0x00000000401a4c03                EVP_idea_cfb64
                0x00000000401a4c09                EVP_idea_ofb
                0x00000000401a4c0f                EVP_idea_ecb
                0x00000000401a5134                EVP_rc2_cbc
                0x00000000401a513a                EVP_rc2_cfb64
                0x00000000401a5140                EVP_rc2_ofb
                0x00000000401a5146                EVP_rc2_ecb
                0x00000000401a514c                EVP_rc2_64_cbc
                0x00000000401a5152                EVP_rc2_40_cbc
                0x00000000401a51a3                EVP_rc4
                0x00000000401a51a9                EVP_rc4_40
                0x00000000401a531b                EVP_desx_cbc
                0x00000000401a5321                DES_ecb3_encrypt
                0x00000000401a53f7                DES_options
                0x00000000401a544d                DES_ecb_encrypt
                0x00000000401a5b91                ERR_get_implementation
                0x00000000401a5ba6                ERR_set_implementation
                0x00000000401a5c05                ERR_load_ERR_strings
                0x00000000401a5d35                ERR_load_strings
                0x00000000401a5d56                ERR_unload_strings
                0x00000000401a5d98                ERR_free_strings
                0x00000000401a5db0                ERR_get_string_table
                0x00000000401a5dcc                ERR_get_err_state_table
                0x00000000401a5de9                ERR_release_err_state_table
                0x00000000401a5e01                ERR_lib_error_string
                0x00000000401a5e3b                ERR_func_error_string
                0x00000000401a5e75                ERR_reason_error_string
                0x00000000401a5ed4                ERR_error_string_n
                0x00000000401a604a                ERR_error_string
                0x00000000401a606c                ERR_remove_thread_state
                0x00000000401a60a7                ERR_remove_state
                0x00000000401a60ba                ERR_get_state
                0x00000000401a61ad                ERR_put_error
                0x00000000401a629c                ERR_clear_error
                0x00000000401a6527                ERR_get_error
                0x00000000401a6555                ERR_get_error_line
                0x00000000401a657f                ERR_get_error_line_data
                0x00000000401a65a3                ERR_peek_error
                0x00000000401a65d1                ERR_peek_error_line
                0x00000000401a65fb                ERR_peek_error_line_data
                0x00000000401a661f                ERR_peek_last_error
                0x00000000401a664d                ERR_peek_last_error_line
                0x00000000401a6677                ERR_peek_last_error_line_data
                0x00000000401a669b                ERR_get_next_error_library
                0x00000000401a66b3                ERR_set_error_data
                0x00000000401a6719                ERR_add_error_data
                0x00000000401a6846                ERR_set_mark
                0x00000000401a6876                ERR_pop_to_mark
                0x00000000401a6939                ERR_load_crypto_strings
                0x00000000401a69c9                ASN1_TYPE_set_octetstring
                0x00000000401a6a25                ASN1_TYPE_get_octetstring
                0x00000000401a6a74                ASN1_TYPE_set_int_octetstring
                0x00000000401a6b9e                ASN1_TYPE_get_int_octetstring
                0x00000000401a6d70                EVP_CIPHER_CTX_init
                0x00000000401a6d88                EVP_CIPHER_CTX_new
                0x00000000401a6db2                EVP_EncryptUpdate
                0x00000000401a6f5f                EVP_EncryptFinal_ex
                0x00000000401a7026                EVP_EncryptFinal
                0x00000000401a7034                EVP_DecryptUpdate
                0x00000000401a713f                EVP_CipherUpdate
                0x00000000401a715a                EVP_DecryptFinal_ex
                0x00000000401a72e2                EVP_CipherFinal_ex
                0x00000000401a72fd                EVP_DecryptFinal
                0x00000000401a730b                EVP_CipherFinal
                0x00000000401a7326                EVP_CIPHER_CTX_cleanup
                0x00000000401a737d                EVP_CIPHER_CTX_free
                0x00000000401a7396                EVP_CIPHER_CTX_set_padding
                0x00000000401a73b2                EVP_CIPHER_CTX_ctrl
                0x00000000401a7443                EVP_CipherInit_ex
                0x00000000401a766a                EVP_CipherInit
                0x00000000401a76ad                EVP_EncryptInit
                0x00000000401a76c1                EVP_DecryptInit
                0x00000000401a76d5                EVP_EncryptInit_ex
                0x00000000401a76e9                EVP_DecryptInit_ex
                0x00000000401a76fd                EVP_CIPHER_CTX_set_key_length
                0x00000000401a7766                EVP_CIPHER_CTX_rand_key
                0x00000000401a779f                EVP_CIPHER_CTX_copy
                0x00000000401a787f                ERR_load_EVP_strings
                0x00000000401a78b7                EVP_CIPHER_param_to_asn1
                0x00000000401a78d6                EVP_CIPHER_asn1_to_param
                0x00000000401a78f5                EVP_CIPHER_get_asn1_iv
                0x00000000401a7973                EVP_CIPHER_set_asn1_iv
                0x00000000401a79bf                EVP_CIPHER_type
                0x00000000401a7b03                EVP_CIPHER_block_size
                0x00000000401a7b07                EVP_CIPHER_CTX_block_size
                0x00000000401a7b0e                EVP_Cipher
                0x00000000401a7b1f                EVP_CIPHER_CTX_cipher
                0x00000000401a7b23                EVP_CIPHER_flags
                0x00000000401a7b28                EVP_CIPHER_CTX_flags
                0x00000000401a7b30                EVP_CIPHER_CTX_get_app_data
                0x00000000401a7b35                EVP_CIPHER_CTX_set_app_data
                0x00000000401a7b3a                EVP_CIPHER_iv_length
                0x00000000401a7b3e                EVP_CIPHER_CTX_iv_length
                0x00000000401a7b45                EVP_CIPHER_key_length
                0x00000000401a7b49                EVP_CIPHER_CTX_key_length
                0x00000000401a7b4d                EVP_CIPHER_nid
                0x00000000401a7b50                EVP_CIPHER_CTX_nid
                0x00000000401a7b56                EVP_MD_block_size
                0x00000000401a7b5a                EVP_MD_type
                0x00000000401a7b5d                EVP_MD_pkey_type
                0x00000000401a7b61                EVP_MD_size
                0x00000000401a7b99                EVP_MD_flags
                0x00000000401a7b9e                EVP_MD_CTX_md
                0x00000000401a7bad                EVP_MD_CTX_set_flags
                0x00000000401a7bb5                EVP_MD_CTX_clear_flags
                0x00000000401a7bbf                EVP_MD_CTX_test_flags
                0x00000000401a7bc5                EVP_CIPHER_CTX_set_flags
                0x00000000401a7bcd                EVP_CIPHER_CTX_clear_flags
                0x00000000401a7bd7                EVP_CIPHER_CTX_test_flags
                0x00000000401a7fae                CRYPTO_get_ex_data_implementation
                0x00000000401a7fd5                CRYPTO_set_ex_data_implementation
                0x00000000401a8034                CRYPTO_ex_data_new_class
                0x00000000401a8055                CRYPTO_cleanup_all_ex_data
                0x00000000401a8077                CRYPTO_get_ex_new_index
                0x00000000401a80cf                CRYPTO_new_ex_data
                0x00000000401a8101                CRYPTO_dup_ex_data
                0x00000000401a8133                CRYPTO_free_ex_data
                0x00000000401a8165                CRYPTO_set_ex_data
                0x00000000401a821c                CRYPTO_get_ex_data
                0x00000000401a8744                idea_encrypt
                0x00000000401a907d                idea_cbc_encrypt
                0x00000000401a96e5                idea_cfb64_encrypt
                0x00000000401a9925                idea_options
                0x00000000401a992b                idea_ecb_encrypt
                0x00000000401a99ee                idea_ofb64_encrypt
                0x00000000401a9c34                idea_set_encrypt_key
                0x00000000401a9db9                idea_set_decrypt_key
                0x00000000401a9f0b                lh_strhash
                0x00000000401a9f7d                lh_new
                0x00000000401aa0d7                lh_free
                0x00000000401aa12f                lh_insert
                0x00000000401aa2b9                lh_delete
                0x00000000401aa3f4                lh_retrieve
                0x00000000401aa433                lh_doall
                0x00000000401aa485                lh_doall_arg
                0x00000000401aa4d8                lh_num_items
                0x00000000401aa524                EVP_dss
                0x00000000401aa566                EVP_dss1
                0x00000000401aa5a8                EVP_ecdsa
                0x00000000401aa5ea                EVP_md4
                0x00000000401aa62c                EVP_md5
                0x00000000401aa66e                EVP_ripemd160
                0x00000000401aa6b0                EVP_sha
                0x00000000401aa78e                EVP_sha1
                0x00000000401aa794                EVP_sha224
                0x00000000401aa79a                EVP_sha256
                0x00000000401aa7a0                EVP_sha384
                0x00000000401aa7a6                EVP_sha512
                0x00000000401aa7ac                MD4_Init
                0x00000000401aa7e1                md4_block_data_order
                0x00000000401aadcd                MD4_Update
                0x00000000401aaef4                MD4_Transform
                0x00000000401aaf00                MD4_Final
                0x00000000401aafb3                MD5_Init
                0x00000000401aafe8                md5_block_data_order
                0x00000000401ab7aa                MD5_Update
                0x00000000401ab8d1                MD5_Transform
                0x00000000401ab8dd                MD5_Final
                0x00000000401ab990                MD5
                0x00000000401aba28                CRYPTO_set_mem_functions
                0x00000000401aba98                CRYPTO_set_mem_ex_functions
                0x00000000401abb08                CRYPTO_set_locked_mem_functions
                0x00000000401abb42                CRYPTO_set_locked_mem_ex_functions
                0x00000000401abb7c                CRYPTO_set_mem_debug_functions
                0x00000000401abbb0                CRYPTO_get_mem_functions
                0x00000000401abc01                CRYPTO_get_mem_ex_functions
                0x00000000401abc4e                CRYPTO_get_locked_mem_functions
                0x00000000401abc7f                CRYPTO_get_locked_mem_ex_functions
                0x00000000401abcae                CRYPTO_get_mem_debug_functions
                0x00000000401abcfb                CRYPTO_malloc_locked
                0x00000000401abdaa                CRYPTO_free_locked
                0x00000000401abde4                CRYPTO_malloc
                0x00000000401abe93                CRYPTO_strdup
                0x00000000401abec9                CRYPTO_realloc
                0x00000000401abf5f                CRYPTO_realloc_clean
                0x00000000401ac02f                CRYPTO_free
                0x00000000401ac069                CRYPTO_remalloc
                0x00000000401ac089                CRYPTO_set_mem_debug_options
                0x00000000401ac0a1                CRYPTO_get_mem_debug_options
                0x00000000401ac0be                OPENSSL_cleanse
                0x00000000401ac506                CRYPTO_mem_ctrl
                0x00000000401ac682                CRYPTO_is_mem_check_on
                0x00000000401ac6fa                CRYPTO_dbg_set_options
                0x00000000401ac702                CRYPTO_dbg_get_options
                0x00000000401ac70a                CRYPTO_push_info_
                0x00000000401ac7d4                CRYPTO_pop_info
                0x00000000401ac809                CRYPTO_remove_all_info
                0x00000000401ac83f                CRYPTO_dbg_malloc
                0x00000000401ac9c5                CRYPTO_dbg_free
                0x00000000401aca38                CRYPTO_dbg_realloc
                0x00000000401acad8                CRYPTO_mem_leaks
                0x00000000401acbf8                CRYPTO_mem_leaks_cb
                0x00000000401acccc                EVP_add_cipher
                0x00000000401acd14                EVP_add_digest
                0x00000000401acdbd                EVP_get_cipherbyname
                0x00000000401acdd0                EVP_get_digestbyname
                0x00000000401acde3                EVP_cleanup
                0x00000000401ace2c                EVP_CIPHER_do_all
                0x00000000401ace50                EVP_CIPHER_do_all_sorted
                0x00000000401ace74                EVP_MD_do_all
                0x00000000401ace98                EVP_MD_do_all_sorted
                0x00000000401acfb3                OBJ_NAME_init
                0x00000000401ad004                OBJ_NAME_new_index
                0x00000000401ad165                OBJ_NAME_get
                0x00000000401ad1fb                OBJ_NAME_add
                0x00000000401ad2d2                OBJ_NAME_remove
                0x00000000401ad381                OBJ_NAME_do_all
                0x00000000401ad3ae                OBJ_NAME_do_all_sorted
                0x00000000401ad450                OBJ_NAME_cleanup
                0x00000000401ad6f9                check_defer
                0x00000000401ad716                OBJ_cleanup
                0x00000000401ad78b                OBJ_new_nid
                0x00000000401ad79a                OBJ_add_object
                0x00000000401ad947                OBJ_nid2obj
                0x00000000401ada09                OBJ_nid2sn
                0x00000000401adace                OBJ_nid2ln
                0x00000000401adb94                OBJ_bsearch_ex_
                0x00000000401adcac                OBJ_bsearch_
                0x00000000401adcc0                OBJ_obj2nid
                0x00000000401add4a                OBJ_obj2txt
                0x00000000401ae0df                OBJ_ln2nid
                0x00000000401ae15d                OBJ_sn2nid
                0x00000000401ae1db                OBJ_txt2obj
                0x00000000401ae2cb                OBJ_txt2nid
                0x00000000401ae2f9                OBJ_create
                0x00000000401ae3dc                OBJ_create_objects
                0x00000000401ae50c                ERR_load_OBJ_strings
                0x00000000401ae544                OBJ_dup
                0x00000000401ae706                OBJ_cmp
                0x00000000401ae72b                ERR_load_OCSP_strings
                0x00000000401ae763                DES_ede3_ofb64_encrypt
                0x00000000401ae950                DES_ofb64_encrypt
                0x00000000401aec4b                EVP_PKEY_bits
                0x00000000401aec81                EVP_PKEY_size
                0x00000000401aecb7                EVP_PKEY_save_parameters
                0x00000000401aece4                EVP_PKEY_missing_parameters
                0x00000000401aed0f                EVP_PKEY_copy_parameters
                0x00000000401aed9d                EVP_PKEY_cmp_parameters
                0x00000000401aedd7                EVP_PKEY_cmp
                0x00000000401aee33                EVP_PKEY_new
                0x00000000401aeeb6                EVP_PKEY_set_type
                0x00000000401aeece                EVP_PKEY_set_type_str
                0x00000000401aeee6                EVP_PKEY_assign
                0x00000000401aef0f                EVP_PKEY_get0
                0x00000000401aef14                EVP_PKEY_set1_RSA
                0x00000000401aef41                EVP_PKEY_get1_RSA
                0x00000000401aef7f                EVP_PKEY_set1_DSA
                0x00000000401aefac                EVP_PKEY_get1_DSA
                0x00000000401aefea                EVP_PKEY_set1_EC_KEY
                0x00000000401af017                EVP_PKEY_get1_EC_KEY
                0x00000000401af058                EVP_PKEY_set1_DH
                0x00000000401af085                EVP_PKEY_get1_DH
                0x00000000401af0c3                EVP_PKEY_type
                0x00000000401af0e6                EVP_PKEY_id
                0x00000000401af0e9                EVP_PKEY_base_id
                0x00000000401af0f9                EVP_PKEY_free
                0x00000000401af14a                EVP_PKEY_print_public
                0x00000000401af173                EVP_PKEY_print_private
                0x00000000401af19c                EVP_PKEY_print_params
                0x00000000401af1c8                EVP_PKEY_get_default_digest_nid
                0x00000000401af203                PEM_read_bio_X509_REQ
                0x00000000401af227                PEM_write_bio_X509_REQ
                0x00000000401af257                PEM_write_bio_X509_REQ_NEW
                0x00000000401af287                PEM_read_bio_X509_CRL
                0x00000000401af2ab                PEM_write_bio_X509_CRL
                0x00000000401af2db                PEM_read_bio_PKCS7
                0x00000000401af2ff                PEM_write_bio_PKCS7
                0x00000000401af32f                PEM_read_bio_NETSCAPE_CERT_SEQUENCE
                0x00000000401af353                PEM_write_bio_NETSCAPE_CERT_SEQUENCE
                0x00000000401af383                PEM_read_bio_RSAPrivateKey
                0x00000000401af3df                PEM_write_bio_RSAPrivateKey
                0x00000000401af40b                PEM_read_bio_RSAPublicKey
                0x00000000401af42f                PEM_write_bio_RSAPublicKey
                0x00000000401af45f                PEM_read_bio_RSA_PUBKEY
                0x00000000401af483                PEM_write_bio_RSA_PUBKEY
                0x00000000401af4b3                PEM_read_bio_DSAPrivateKey
                0x00000000401af50f                PEM_write_bio_DSAPrivateKey
                0x00000000401af53b                PEM_read_bio_DSA_PUBKEY
                0x00000000401af55f                PEM_write_bio_DSA_PUBKEY
                0x00000000401af58f                PEM_read_bio_DSAparams
                0x00000000401af5b3                PEM_write_bio_DSAparams
                0x00000000401af5e3                PEM_read_bio_ECPrivateKey
                0x00000000401af63f                PEM_read_bio_ECPKParameters
                0x00000000401af663                PEM_write_bio_ECPKParameters
                0x00000000401af693                PEM_write_bio_ECPrivateKey
                0x00000000401af6bf                PEM_read_bio_EC_PUBKEY
                0x00000000401af6e3                PEM_write_bio_EC_PUBKEY
                0x00000000401af713                PEM_read_bio_DHparams
                0x00000000401af737                PEM_write_bio_DHparams
                0x00000000401af767                PEM_read_bio_PUBKEY
                0x00000000401af78b                PEM_write_bio_PUBKEY
                0x00000000401af7bb                ERR_load_PEM_strings
                0x00000000401af7f3                PEM_def_callback
                0x00000000401af820                PEM_proc_type
                0x00000000401af88d                PEM_dek_info
                0x00000000401af951                PEM_do_header
                0x00000000401afb24                PEM_get_EVP_CIPHER_INFO
                0x00000000401afdbe                PEM_write_bio
                0x00000000401b0038                PEM_ASN1_write_bio
                0x00000000401b0433                PEM_read_bio
                0x00000000401b0a8f                pem_check_suffix
                0x00000000401b0aea                PEM_bytes_read_bio
                0x00000000401b0e57                PEM_ASN1_read_bio
                0x00000000401b0ef8                PEM_read_bio_PrivateKey
                0x00000000401b1199                PEM_write_bio_PrivateKey
                0x00000000401b1249                PEM_read_bio_Parameters
                0x00000000401b136a                PEM_write_bio_Parameters
                0x00000000401b13e3                PEM_read_bio_X509
                0x00000000401b1407                PEM_write_bio_X509
                0x00000000401b1437                ERR_load_PKCS12_strings
                0x00000000401b1537                d2i_PKCS7
                0x00000000401b154a                i2d_PKCS7
                0x00000000401b155d                PKCS7_new
                0x00000000401b1570                PKCS7_free
                0x00000000401b1583                i2d_PKCS7_NDEF
                0x00000000401b1596                PKCS7_dup
                0x00000000401b15ac                d2i_PKCS7_SIGNED
                0x00000000401b15bf                i2d_PKCS7_SIGNED
                0x00000000401b15d2                PKCS7_SIGNED_new
                0x00000000401b15e5                PKCS7_SIGNED_free
                0x00000000401b15f8                d2i_PKCS7_SIGNER_INFO
                0x00000000401b160b                i2d_PKCS7_SIGNER_INFO
                0x00000000401b161e                PKCS7_SIGNER_INFO_new
                0x00000000401b1631                PKCS7_SIGNER_INFO_free
                0x00000000401b1644                d2i_PKCS7_ISSUER_AND_SERIAL
                0x00000000401b1657                i2d_PKCS7_ISSUER_AND_SERIAL
                0x00000000401b166a                PKCS7_ISSUER_AND_SERIAL_new
                0x00000000401b167d                PKCS7_ISSUER_AND_SERIAL_free
                0x00000000401b1690                d2i_PKCS7_ENVELOPE
                0x00000000401b16a3                i2d_PKCS7_ENVELOPE
                0x00000000401b16b6                PKCS7_ENVELOPE_new
                0x00000000401b16c9                PKCS7_ENVELOPE_free
                0x00000000401b16dc                d2i_PKCS7_RECIP_INFO
                0x00000000401b16ef                i2d_PKCS7_RECIP_INFO
                0x00000000401b1702                PKCS7_RECIP_INFO_new
                0x00000000401b1715                PKCS7_RECIP_INFO_free
                0x00000000401b1728                d2i_PKCS7_ENC_CONTENT
                0x00000000401b173b                i2d_PKCS7_ENC_CONTENT
                0x00000000401b174e                PKCS7_ENC_CONTENT_new
                0x00000000401b1761                PKCS7_ENC_CONTENT_free
                0x00000000401b1774                d2i_PKCS7_SIGN_ENVELOPE
                0x00000000401b1787                i2d_PKCS7_SIGN_ENVELOPE
                0x00000000401b179a                PKCS7_SIGN_ENVELOPE_new
                0x00000000401b17ad                PKCS7_SIGN_ENVELOPE_free
                0x00000000401b17c0                d2i_PKCS7_ENCRYPT
                0x00000000401b17d3                i2d_PKCS7_ENCRYPT
                0x00000000401b17e6                PKCS7_ENCRYPT_new
                0x00000000401b17f9                PKCS7_ENCRYPT_free
                0x00000000401b180c                d2i_PKCS7_DIGEST
                0x00000000401b181f                i2d_PKCS7_DIGEST
                0x00000000401b1832                PKCS7_DIGEST_new
                0x00000000401b1845                PKCS7_DIGEST_free
                0x00000000401b1858                PKCS7_print_ctx
                0x00000000401b1dc1                PKCS7_dataInit
                0x00000000401b242c                PKCS7_dataDecode
                0x00000000401b2baa                PKCS7_SIGNER_INFO_sign
                0x00000000401b2d81                PKCS7_get_issuer_and_serial
                0x00000000401b2df5                PKCS7_get_signed_attribute
                0x00000000401b2e07                PKCS7_dataFinal
                0x00000000401b332b                PKCS7_get_attribute
                0x00000000401b333d                PKCS7_digest_from_attributes
                0x00000000401b3360                PKCS7_signatureVerify
                0x00000000401b3666                PKCS7_dataVerify
                0x00000000401b37d5                PKCS7_set_signed_attributes
                0x00000000401b3858                PKCS7_set_attributes
                0x00000000401b38db                PKCS7_add_signed_attribute
                0x00000000401b38ed                PKCS7_add_attribute
                0x00000000401b38ff                PKCS7_ctrl
                0x00000000401b3a24                PKCS7_set_content
                0x00000000401b3ab2                PKCS7_set_type
                0x00000000401b3ca0                PKCS7_content_new
                0x00000000401b3cf1                PKCS7_set0_type_other
                0x00000000401b3d18                PKCS7_add_signer
                0x00000000401b3e73                PKCS7_add_certificate
                0x00000000401b3f56                PKCS7_add_crl
                0x00000000401b4039                PKCS7_SIGNER_INFO_set
                0x00000000401b4187                PKCS7_add_signature
                0x00000000401b4246                PKCS7_set_digest
                0x00000000401b42f7                PKCS7_get_signer_info
                0x00000000401b4333                PKCS7_SIGNER_INFO_get0_algs
                0x00000000401b4359                PKCS7_RECIP_INFO_get0_alg
                0x00000000401b4367                PKCS7_add_recipient_info
                0x00000000401b43d7                PKCS7_RECIP_INFO_set
                0x00000000401b4561                PKCS7_add_recipient
                0x00000000401b45b2                PKCS7_cert_from_signer_info
                0x00000000401b45f6                PKCS7_set_cipher
                0x00000000401b4691                PKCS7_stream
                0x00000000401b4753                ERR_load_PKCS7_strings
                0x00000000401b478b                ERR_load_RAND_strings
                0x00000000401b47c3                DES_random_key
                0x00000000401b4804                RAND_set_rand_method
                0x00000000401b4811                RAND_get_rand_method
                0x00000000401b483f                RAND_cleanup
                0x00000000401b4868                RAND_seed
                0x00000000401b4893                RAND_add
                0x00000000401b48c1                RAND_bytes
                0x00000000401b48fb                RAND_pseudo_bytes
                0x00000000401b4935                RAND_status
                0x00000000401b495f                RC2_encrypt
                0x00000000401b4a98                RC2_decrypt
                0x00000000401b4bef                RC2_cbc_encrypt
                0x00000000401b5224                RC2_ecb_encrypt
                0x00000000401b52ee                RC2_set_key
                0x00000000401b5401                RC2_cfb64_encrypt
                0x00000000401b5629                RC2_ofb64_encrypt
                0x00000000401b57f7                RC4
                0x00000000401b5c2a                RC4_options
                0x00000000401b5c30                RC4_set_key
                0x00000000401b5d2e                RIPEMD160_Init
                0x00000000401b5d6a                ripemd160_block_data_order
                0x00000000401b7100                RIPEMD160_Update
                0x00000000401b7227                RIPEMD160_Transform
                0x00000000401b7233                RIPEMD160_Final
                0x00000000401b7329                d2i_RSAPrivateKey
                0x00000000401b733c                i2d_RSAPrivateKey
                0x00000000401b734f                d2i_RSAPublicKey
                0x00000000401b7362                i2d_RSAPublicKey
                0x00000000401b7375                RSAPublicKey_dup
                0x00000000401b738b                RSAPrivateKey_dup
                0x00000000401b73a1                RSA_generate_key
                0x00000000401b7461                ERR_load_RSA_strings
                0x00000000401b7499                RSA_generate_key_ex
                0x00000000401b7a05                RSA_set_default_method
                0x00000000401b7a0d                RSA_get_default_method
                0x00000000401b7a3b                RSA_get_method
                0x00000000401b7a40                RSA_set_method
                0x00000000401b7a79                RSA_new_method
                0x00000000401b7bd1                RSA_new
                0x00000000401b7be4                RSA_free
                0x00000000401b7ce8                RSA_up_ref
                0x00000000401b7d18                RSA_get_ex_new_index
                0x00000000401b7d3a                RSA_set_ex_data
                0x00000000401b7d4c                RSA_get_ex_data
                0x00000000401b7d5e                RSA_size
                0x00000000401b7d7c                RSA_public_encrypt
                0x00000000401b7d8c                RSA_private_encrypt
                0x00000000401b7d9c                RSA_private_decrypt
                0x00000000401b7dac                RSA_public_decrypt
                0x00000000401b7dbc                RSA_flags
                0x00000000401b7dcf                RSA_blinding_off
                0x00000000401b7dfc                RSA_setup_blinding
                0x00000000401b809e                RSA_blinding_on
                0x00000000401b80ee                RSA_memory_lock
                0x00000000401b8235                RSA_sign
                0x00000000401b849c                int_rsa_verify
                0x00000000401b882b                RSA_verify
                0x00000000401b886a                DES_set_odd_parity
                0x00000000401b8885                DES_check_key_parity
                0x00000000401b88c4                DES_is_weak_key
                0x00000000401b8904                DES_set_key_unchecked
                0x00000000401b8bab                DES_set_key_checked
                0x00000000401b8bea                DES_set_key
                0x00000000401b8c07                DES_key_sched
                0x00000000401b8c15                SHA1
                0x00000000401b9fb2                SHA1_Update
                0x00000000401ba0d9                SHA1_Transform
                0x00000000401ba0e5                SHA1_Final
                0x00000000401ba1ac                SHA1_Init
                0x00000000401bb886                SHA224_Init
                0x00000000401bb8de                SHA256_Init
                0x00000000401bb936                SHA256_Update
                0x00000000401bba5d                SHA224_Update
                0x00000000401bba6b                SHA256_Transform
                0x00000000401bba77                SHA256_Final
                0x00000000401bbb9e                SHA224
                0x00000000401bbbf5                SHA256
                0x00000000401bbc4c                SHA224_Final
                0x00000000401bd321                SHA384_Init
                0x00000000401bd3ba                SHA512_Init
                0x00000000401bd453                SHA512_Final
                0x00000000401bd67e                SHA384_Final
                0x00000000401bd68c                SHA512_Update
                0x00000000401bd7a3                SHA384_Update
                0x00000000401bd7b1                SHA512_Transform
                0x00000000401bd7bd                SHA384
                0x00000000401bd822                SHA512
                0x00000000401beb31                SHA_Update
                0x00000000401bec58                SHA_Transform
                0x00000000401bec64                SHA_Final
                0x00000000401bed2b                SHA_Init
                0x00000000401bed67                sk_set_cmp_func
                0x00000000401bed7c                sk_new
                0x00000000401bee0f                sk_new_null
                0x00000000401bee22                sk_insert
                0x00000000401beec6                sk_delete
                0x00000000401bef1e                sk_delete_ptr
                0x00000000401bef65                sk_push
                0x00000000401bef75                sk_unshift
                0x00000000401bef88                sk_shift
                0x00000000401befaa                sk_pop
                0x00000000401befcb                sk_zero
                0x00000000401beff4                sk_free
                0x00000000401bf016                sk_dup
                0x00000000401bf0a3                sk_pop_free
                0x00000000401bf0e5                sk_num
                0x00000000401bf0f3                sk_value
                0x00000000401bf11d                sk_set
                0x00000000401bf14a                sk_sort
                0x00000000401bf227                sk_find
                0x00000000401bf23a                sk_find_ex
                0x00000000401bf24d                sk_is_sorted
                0x00000000401bf77a                ASN1_tag2bit
                0x00000000401bf791                asn1_ex_c2i
                0x00000000401bffaa                ASN1_item_ex_d2i
                0x00000000401c09a3                ASN1_item_d2i
                0x00000000401c0f27                ASN1_template_d2i
                0x00000000401c0f78                asn1_ex_i2c
                0x00000000401c1241                ASN1_item_ex_i2d
                0x00000000401c1731                ASN1_item_ndef_i2d
                0x00000000401c1744                ASN1_item_i2d
                0x00000000401c1c72                ASN1_template_i2d
                0x00000000401c1c8b                ASN1_primitive_free
                0x00000000401c2050                ASN1_item_free
                0x00000000401c206d                ASN1_item_ex_free
                0x00000000401c2080                ASN1_template_free
                0x00000000401c21b8                ASN1_primitive_new
                0x00000000401c264c                ASN1_item_ex_new
                0x00000000401c265f                ASN1_item_new
                0x00000000401c268e                ASN1_template_new
                0x00000000401c2725                d2i_ASN1_INTEGER
                0x00000000401c2738                i2d_ASN1_INTEGER
                0x00000000401c274b                ASN1_INTEGER_new
                0x00000000401c275e                ASN1_INTEGER_free
                0x00000000401c2771                d2i_ASN1_ENUMERATED
                0x00000000401c2784                i2d_ASN1_ENUMERATED
                0x00000000401c2797                ASN1_ENUMERATED_new
                0x00000000401c27aa                ASN1_ENUMERATED_free
                0x00000000401c27bd                d2i_ASN1_BIT_STRING
                0x00000000401c27d0                i2d_ASN1_BIT_STRING
                0x00000000401c27e3                ASN1_BIT_STRING_new
                0x00000000401c27f6                ASN1_BIT_STRING_free
                0x00000000401c2809                d2i_ASN1_OCTET_STRING
                0x00000000401c281c                i2d_ASN1_OCTET_STRING
                0x00000000401c282f                ASN1_OCTET_STRING_new
                0x00000000401c2842                ASN1_OCTET_STRING_free
                0x00000000401c2855                d2i_ASN1_NULL
                0x00000000401c2868                i2d_ASN1_NULL
                0x00000000401c287b                ASN1_NULL_new
                0x00000000401c288e                ASN1_NULL_free
                0x00000000401c28a1                d2i_ASN1_UTF8STRING
                0x00000000401c28b4                i2d_ASN1_UTF8STRING
                0x00000000401c28c7                ASN1_UTF8STRING_new
                0x00000000401c28da                ASN1_UTF8STRING_free
                0x00000000401c28ed                d2i_ASN1_PRINTABLESTRING
                0x00000000401c2900                i2d_ASN1_PRINTABLESTRING
                0x00000000401c2913                ASN1_PRINTABLESTRING_new
                0x00000000401c2926                ASN1_PRINTABLESTRING_free
                0x00000000401c2939                d2i_ASN1_T61STRING
                0x00000000401c294c                i2d_ASN1_T61STRING
                0x00000000401c295f                ASN1_T61STRING_new
                0x00000000401c2972                ASN1_T61STRING_free
                0x00000000401c2985                d2i_ASN1_IA5STRING
                0x00000000401c2998                i2d_ASN1_IA5STRING
                0x00000000401c29ab                ASN1_IA5STRING_new
                0x00000000401c29be                ASN1_IA5STRING_free
                0x00000000401c29d1                d2i_ASN1_GENERALSTRING
                0x00000000401c29e4                i2d_ASN1_GENERALSTRING
                0x00000000401c29f7                ASN1_GENERALSTRING_new
                0x00000000401c2a0a                ASN1_GENERALSTRING_free
                0x00000000401c2a1d                d2i_ASN1_UTCTIME
                0x00000000401c2a30                i2d_ASN1_UTCTIME
                0x00000000401c2a43                ASN1_UTCTIME_new
                0x00000000401c2a56                ASN1_UTCTIME_free
                0x00000000401c2a69                d2i_ASN1_GENERALIZEDTIME
                0x00000000401c2a7c                i2d_ASN1_GENERALIZEDTIME
                0x00000000401c2a8f                ASN1_GENERALIZEDTIME_new
                0x00000000401c2aa2                ASN1_GENERALIZEDTIME_free
                0x00000000401c2ab5                d2i_ASN1_VISIBLESTRING
                0x00000000401c2ac8                i2d_ASN1_VISIBLESTRING
                0x00000000401c2adb                ASN1_VISIBLESTRING_new
                0x00000000401c2aee                ASN1_VISIBLESTRING_free
                0x00000000401c2b01                d2i_ASN1_UNIVERSALSTRING
                0x00000000401c2b14                i2d_ASN1_UNIVERSALSTRING
                0x00000000401c2b27                ASN1_UNIVERSALSTRING_new
                0x00000000401c2b3a                ASN1_UNIVERSALSTRING_free
                0x00000000401c2b4d                d2i_ASN1_BMPSTRING
                0x00000000401c2b60                i2d_ASN1_BMPSTRING
                0x00000000401c2b73                ASN1_BMPSTRING_new
                0x00000000401c2b86                ASN1_BMPSTRING_free
                0x00000000401c2b99                d2i_ASN1_TYPE
                0x00000000401c2bac                i2d_ASN1_TYPE
                0x00000000401c2bbf                ASN1_TYPE_new
                0x00000000401c2bd2                ASN1_TYPE_free
                0x00000000401c2be5                d2i_ASN1_PRINTABLE
                0x00000000401c2bf8                i2d_ASN1_PRINTABLE
                0x00000000401c2c0b                ASN1_PRINTABLE_new
                0x00000000401c2c1e                ASN1_PRINTABLE_free
                0x00000000401c2c31                d2i_DISPLAYTEXT
                0x00000000401c2c44                i2d_DISPLAYTEXT
                0x00000000401c2c57                DISPLAYTEXT_new
                0x00000000401c2c6a                DISPLAYTEXT_free
                0x00000000401c2c7d                d2i_DIRECTORYSTRING
                0x00000000401c2c90                i2d_DIRECTORYSTRING
                0x00000000401c2ca3                DIRECTORYSTRING_new
                0x00000000401c2cb6                DIRECTORYSTRING_free
                0x00000000401c2cc9                d2i_ASN1_SEQUENCE_ANY
                0x00000000401c2cdc                i2d_ASN1_SEQUENCE_ANY
                0x00000000401c2cef                d2i_ASN1_SET_ANY
                0x00000000401c2d02                i2d_ASN1_SET_ANY
                0x00000000401c2d51                asn1_get_choice_selector
                0x00000000401c2d5c                asn1_set_choice_selector
                0x00000000401c2d68                asn1_do_lock
                0x00000000401c2dca                asn1_enc_init
                0x00000000401c2dec                asn1_enc_free
                0x00000000401c2e1f                asn1_enc_save
                0x00000000401c2e8f                asn1_enc_restore
                0x00000000401c2ef8                asn1_get_field_ptr
                0x00000000401c2f0d                asn1_do_adb
                0x00000000401c2fca                ERR_load_UI_strings
                0x00000000401c3002                ERR_load_X509V3_strings
                0x00000000401c303a                X509_issuer_and_serial_hash
                0x00000000401c310a                X509_CRL_match
                0x00000000401c3125                X509_get_issuer_name
                0x00000000401c312d                X509_get_subject_name
                0x00000000401c3135                X509_get_serialNumber
                0x00000000401c313d                X509_cmp
                0x00000000401c3189                X509_NAME_cmp
                0x00000000401c3201                X509_issuer_and_serial_cmp
                0x00000000401c3232                X509_issuer_name_cmp
                0x00000000401c324e                X509_subject_name_cmp
                0x00000000401c326a                X509_CRL_cmp
                0x00000000401c3286                X509_NAME_hash
                0x00000000401c32ef                X509_issuer_name_hash
                0x00000000401c3304                X509_subject_name_hash
                0x00000000401c3319                X509_NAME_hash_old
                0x00000000401c3382                X509_issuer_name_hash_old
                0x00000000401c3397                X509_subject_name_hash_old
                0x00000000401c33ac                X509_find_by_issuer_and_serial
                0x00000000401c3429                X509_find_by_subject
                0x00000000401c3484                X509_get_pubkey
                0x00000000401c34b1                X509_get0_pubkey_bitstr
                0x00000000401c34c8                X509_check_private_key
                0x00000000401c3584                ERR_load_X509_strings
                0x00000000401c35bc                X509_NAME_oneline
                0x00000000401c3d73                X509_time_adj_ex
                0x00000000401c3dc3                X509_time_adj
                0x00000000401c3ddc                X509_cmp_time
                0x00000000401c4286                X509_cmp_current_time
                0x00000000401c4e7c                X509_gmtime_adj
                0x00000000401c4e8f                X509_get_pubkey_parameters
                0x00000000401c4faf                X509_verify_cert
                0x00000000401c5908                X509_STORE_CTX_get_ex_new_index
                0x00000000401c592a                X509_STORE_CTX_set_ex_data
                0x00000000401c593f                X509_STORE_CTX_get_ex_data
                0x00000000401c5954                X509_STORE_CTX_get_error
                0x00000000401c595b                X509_STORE_CTX_set_error
                0x00000000401c5962                X509_STORE_CTX_get_error_depth
                0x00000000401c5969                X509_STORE_CTX_get_current_cert
                0x00000000401c5971                X509_STORE_CTX_get_chain
                0x00000000401c5979                X509_STORE_CTX_get1_chain
                0x00000000401c59eb                X509_STORE_CTX_get0_current_issuer
                0x00000000401c59f3                X509_STORE_CTX_get0_current_crl
                0x00000000401c59fb                X509_STORE_CTX_get0_parent_ctx
                0x00000000401c5a03                X509_STORE_CTX_set_cert
                0x00000000401c5a08                X509_STORE_CTX_set_chain
                0x00000000401c5a0d                X509_STORE_CTX_set0_crls
                0x00000000401c5a12                X509_STORE_CTX_purpose_inherit
                0x00000000401c5b55                X509_STORE_CTX_set_purpose
                0x00000000401c5b6f                X509_STORE_CTX_set_trust
                0x00000000401c5b89                X509_STORE_CTX_new
                0x00000000401c5be3                X509_STORE_CTX_init
                0x00000000401c5f79                X509_STORE_CTX_trusted_stack
                0x00000000401c5f86                X509_STORE_CTX_cleanup
                0x00000000401c602a                X509_STORE_CTX_free
                0x00000000401c603d                X509_STORE_CTX_set_depth
                0x00000000401c604f                X509_STORE_CTX_set_flags
                0x00000000401c6061                X509_STORE_CTX_set_time
                0x00000000401c6075                X509_STORE_CTX_set_verify_cb
                0x00000000401c607a                X509_STORE_CTX_get0_policy_tree
                0x00000000401c6082                X509_STORE_CTX_get_explicit_policy
                0x00000000401c6089                X509_STORE_CTX_set_default
                0x00000000401c60ad                X509_STORE_CTX_get0_param
                0x00000000401c60b2                X509_STORE_CTX_set0_param
                0x00000000401c63ba                X509_VERIFY_PARAM_free
                0x00000000401c6442                X509_VERIFY_PARAM_new
                0x00000000401c64bd                X509_VERIFY_PARAM_set1_name
                0x00000000401c64f1                X509_VERIFY_PARAM_set_flags
                0x00000000401c6512                X509_VERIFY_PARAM_clear_flags
                0x00000000401c651f                X509_VERIFY_PARAM_get_flags
                0x00000000401c6524                X509_VERIFY_PARAM_set_purpose
                0x00000000401c6536                X509_VERIFY_PARAM_set_trust
                0x00000000401c6548                X509_VERIFY_PARAM_set_depth
                0x00000000401c654c                X509_VERIFY_PARAM_set_time
                0x00000000401c6555                X509_VERIFY_PARAM_add0_policy
                0x00000000401c6598                X509_VERIFY_PARAM_set1_policies
                0x00000000401c6667                X509_VERIFY_PARAM_inherit
                0x00000000401c6803                X509_VERIFY_PARAM_set1
                0x00000000401c682b                X509_VERIFY_PARAM_get_depth
                0x00000000401c682f                X509_VERIFY_PARAM_add0_table
                0x00000000401c68b4                X509_VERIFY_PARAM_lookup
                0x00000000401c690c                X509_VERIFY_PARAM_table_cleanup
                0x00000000401c6942                d2i_X509_ALGOR
                0x00000000401c6955                i2d_X509_ALGOR
                0x00000000401c6968                X509_ALGOR_new
                0x00000000401c697b                X509_ALGOR_free
                0x00000000401c698e                d2i_X509_ALGORS
                0x00000000401c69a1                i2d_X509_ALGORS
                0x00000000401c69b4                X509_ALGOR_dup
                0x00000000401c69ca                X509_ALGOR_set0
                0x00000000401c6a64                X509_ALGOR_get0
                0x00000000401c6a9a                X509_verify
                0x00000000401c6abb                X509_REQ_verify
                0x00000000401c6adc                NETSCAPE_SPKI_verify
                0x00000000401c6afd                X509_sign
                0x00000000401c6b30                X509_REQ_sign
                0x00000000401c6b57                X509_CRL_sign
                0x00000000401c6b8a                NETSCAPE_SPKI_sign
                0x00000000401c6bb1                d2i_X509_bio
                0x00000000401c6bca                i2d_X509_bio
                0x00000000401c6be3                d2i_X509_CRL_bio
                0x00000000401c6bfc                i2d_X509_CRL_bio
                0x00000000401c6c15                d2i_PKCS7_bio
                0x00000000401c6c2e                i2d_PKCS7_bio
                0x00000000401c6c47                d2i_X509_REQ_bio
                0x00000000401c6c60                i2d_X509_REQ_bio
                0x00000000401c6c79                d2i_RSAPrivateKey_bio
                0x00000000401c6c92                i2d_RSAPrivateKey_bio
                0x00000000401c6cab                d2i_RSAPublicKey_bio
                0x00000000401c6cc4                d2i_RSA_PUBKEY_bio
                0x00000000401c6ce2                i2d_RSAPublicKey_bio
                0x00000000401c6cfb                i2d_RSA_PUBKEY_bio
                0x00000000401c6d14                d2i_DSAPrivateKey_bio
                0x00000000401c6d32                i2d_DSAPrivateKey_bio
                0x00000000401c6d4b                d2i_DSA_PUBKEY_bio
                0x00000000401c6d69                i2d_DSA_PUBKEY_bio
                0x00000000401c6d82                d2i_EC_PUBKEY_bio
                0x00000000401c6da0                i2d_EC_PUBKEY_bio
                0x00000000401c6db9                d2i_ECPrivateKey_bio
                0x00000000401c6dd7                i2d_ECPrivateKey_bio
                0x00000000401c6df0                X509_pubkey_digest
                0x00000000401c6e2f                X509_digest
                0x00000000401c6e4b                X509_CRL_digest
                0x00000000401c6e67                X509_REQ_digest
                0x00000000401c6e83                X509_NAME_digest
                0x00000000401c6e9f                PKCS7_ISSUER_AND_SERIAL_digest
                0x00000000401c6ebb                d2i_PKCS8_bio
                0x00000000401c6ed9                i2d_PKCS8_bio
                0x00000000401c6ef2                d2i_PKCS8_PRIV_KEY_INFO_bio
                0x00000000401c6f10                i2d_PKCS8_PRIV_KEY_INFO_bio
                0x00000000401c6f29                i2d_PKCS8PrivateKeyInfo_bio
                0x00000000401c6f65                i2d_PrivateKey_bio
                0x00000000401c6f7e                d2i_PrivateKey_bio
                0x00000000401c6f9c                i2d_PUBKEY_bio
                0x00000000401c6fb5                d2i_PUBKEY_bio
                0x00000000401c6fd3                d2i_X509_ATTRIBUTE
                0x00000000401c6fe6                i2d_X509_ATTRIBUTE
                0x00000000401c6ff9                X509_ATTRIBUTE_new
                0x00000000401c700c                X509_ATTRIBUTE_free
                0x00000000401c701f                X509_ATTRIBUTE_dup
                0x00000000401c7035                X509_ATTRIBUTE_create
                0x00000000401c77ab                d2i_X509_REVOKED
                0x00000000401c77be                i2d_X509_REVOKED
                0x00000000401c77d1                X509_REVOKED_new
                0x00000000401c77e4                X509_REVOKED_free
                0x00000000401c77f7                d2i_X509_CRL_INFO
                0x00000000401c780a                i2d_X509_CRL_INFO
                0x00000000401c781d                X509_CRL_INFO_new
                0x00000000401c7830                X509_CRL_INFO_free
                0x00000000401c7843                d2i_X509_CRL
                0x00000000401c7856                i2d_X509_CRL
                0x00000000401c7869                X509_CRL_new
                0x00000000401c787c                X509_CRL_free
                0x00000000401c788f                X509_CRL_dup
                0x00000000401c78a5                X509_CRL_add0_revoked
                0x00000000401c7915                X509_CRL_verify
                0x00000000401c7933                X509_CRL_get0_by_serial
                0x00000000401c7957                X509_CRL_get0_by_cert
                0x00000000401c79a5                X509_CRL_set_default_method
                0x00000000401c79b9                X509_CRL_METHOD_new
                0x00000000401c7a09                X509_CRL_METHOD_free
                0x00000000401c7a1d                X509_CRL_set_meth_data
                0x00000000401c7a22                X509_CRL_get_meth_data
                0x00000000401c7a27                d2i_X509_EXTENSION
                0x00000000401c7a3a                i2d_X509_EXTENSION
                0x00000000401c7a4d                X509_EXTENSION_new
                0x00000000401c7a60                X509_EXTENSION_free
                0x00000000401c7a73                d2i_X509_EXTENSIONS
                0x00000000401c7a86                i2d_X509_EXTENSIONS
                0x00000000401c7a99                X509_EXTENSION_dup
                0x00000000401c7c92                X509_NAME_ENTRY_free
                0x00000000401c7e68                d2i_X509_NAME_ENTRY
                0x00000000401c7e7b                i2d_X509_NAME_ENTRY
                0x00000000401c7e8e                X509_NAME_ENTRY_new
                0x00000000401c83a1                X509_NAME_ENTRY_dup
                0x00000000401c83b7                d2i_X509_NAME
                0x00000000401c83ca                i2d_X509_NAME
                0x00000000401c83dd                X509_NAME_new
                0x00000000401c83f0                X509_NAME_free
                0x00000000401c859d                X509_NAME_dup
                0x00000000401c85b3                X509_NAME_set
                0x00000000401c8624                d2i_X509_PUBKEY
                0x00000000401c8637                i2d_X509_PUBKEY
                0x00000000401c864a                X509_PUBKEY_new
                0x00000000401c865d                X509_PUBKEY_free
                0x00000000401c8670                X509_PUBKEY_set
                0x00000000401c874d                X509_PUBKEY_get
                0x00000000401c8907                d2i_PUBKEY
                0x00000000401c8963                i2d_PUBKEY
                0x00000000401c89b0                d2i_RSA_PUBKEY
                0x00000000401c8a31                i2d_RSA_PUBKEY
                0x00000000401c8aa0                d2i_DSA_PUBKEY
                0x00000000401c8b21                i2d_DSA_PUBKEY
                0x00000000401c8b90                d2i_EC_PUBKEY
                0x00000000401c8c11                i2d_EC_PUBKEY
                0x00000000401c8c80                X509_PUBKEY_set0_param
                0x00000000401c8ce2                X509_PUBKEY_get0_param
                0x00000000401c8d3c                d2i_X509_REQ_INFO
                0x00000000401c8d4f                i2d_X509_REQ_INFO
                0x00000000401c8d62                X509_REQ_INFO_new
                0x00000000401c8d75                X509_REQ_INFO_free
                0x00000000401c8d88                d2i_X509_REQ
                0x00000000401c8d9b                i2d_X509_REQ
                0x00000000401c8dae                X509_REQ_new
                0x00000000401c8dc1                X509_REQ_free
                0x00000000401c8dd4                X509_REQ_dup
                0x00000000401c8dea                d2i_X509_SIG
                0x00000000401c8dfd                i2d_X509_SIG
                0x00000000401c8e10                X509_SIG_new
                0x00000000401c8e23                X509_SIG_free
                0x00000000401c8e36                d2i_NETSCAPE_SPKAC
                0x00000000401c8e49                i2d_NETSCAPE_SPKAC
                0x00000000401c8e5c                NETSCAPE_SPKAC_new
                0x00000000401c8e6f                NETSCAPE_SPKAC_free
                0x00000000401c8e82                d2i_NETSCAPE_SPKI
                0x00000000401c8e95                i2d_NETSCAPE_SPKI
                0x00000000401c8ea8                NETSCAPE_SPKI_new
                0x00000000401c8ebb                NETSCAPE_SPKI_free
                0x00000000401c8fdf                d2i_X509_CINF
                0x00000000401c8ff2                i2d_X509_CINF
                0x00000000401c9005                X509_CINF_new
                0x00000000401c9018                X509_CINF_free
                0x00000000401c902b                d2i_X509
                0x00000000401c903e                i2d_X509
                0x00000000401c9051                X509_new
                0x00000000401c9064                X509_free
                0x00000000401c9077                X509_dup
                0x00000000401c908d                X509_get_ex_new_index
                0x00000000401c90af                X509_set_ex_data
                0x00000000401c90c1                X509_get_ex_data
                0x00000000401c90d3                d2i_X509_AUX
                0x00000000401c9137                i2d_X509_AUX
                0x00000000401c9165                d2i_X509_CERT_AUX
                0x00000000401c9178                i2d_X509_CERT_AUX
                0x00000000401c918b                X509_CERT_AUX_new
                0x00000000401c91d3                X509_CERT_AUX_free
                0x00000000401c91e6                X509_alias_set1
                0x00000000401c9284                X509_keyid_set1
                0x00000000401c9322                X509_alias_get0
                0x00000000401c935c                X509_keyid_get0
                0x00000000401c9396                X509_add1_trust_object
                0x00000000401c93f7                X509_add1_reject_object
                0x00000000401c945b                X509_trust_clear
                0x00000000401c9491                X509_reject_clear
                0x00000000401c94c9                d2i_X509_CERT_PAIR
                0x00000000401c94dc                i2d_X509_CERT_PAIR
                0x00000000401c94ef                X509_CERT_PAIR_new
                0x00000000401c9502                X509_CERT_PAIR_free
                0x00000000401c9515                DES_xcbc_encrypt
                0x00000000401c9ca5                ERR_load_TS_strings
                0x00000000401c9cdd                ERR_load_CMS_strings
                0x00000000401c9d54                OBJ_find_sigid_algs
                0x00000000401c9dd3                OBJ_find_sigid_by_algs
                0x00000000401c9e5e                OBJ_add_sigid
                0x00000000401c9f4d                OBJ_sigid_free
                0x00000000401c9fcf                EVP_whirlpool
                0x00000000401c9feb                EVP_PKEY_meth_find
                0x00000000401ca05e                EVP_PKEY_meth_new
                0x00000000401ca17a                EVP_PKEY_meth_free
                0x00000000401ca194                EVP_PKEY_meth_add0
                0x00000000401ca1e5                EVP_PKEY_CTX_free
                0x00000000401ca360                EVP_PKEY_CTX_new
                0x00000000401ca373                EVP_PKEY_CTX_new_id
                0x00000000401ca388                EVP_PKEY_CTX_dup
                0x00000000401ca47f                EVP_PKEY_CTX_ctrl
                0x00000000401ca572                EVP_PKEY_CTX_ctrl_str
                0x00000000401ca64d                EVP_PKEY_CTX_get_operation
                0x00000000401ca651                EVP_PKEY_CTX_set0_keygen_info
                0x00000000401ca659                EVP_PKEY_CTX_set_data
                0x00000000401ca65e                EVP_PKEY_CTX_get_data
                0x00000000401ca663                EVP_PKEY_CTX_get0_pkey
                0x00000000401ca668                EVP_PKEY_CTX_get0_peerkey
                0x00000000401ca66d                EVP_PKEY_CTX_set_app_data
                0x00000000401ca672                EVP_PKEY_CTX_get_app_data
                0x00000000401ca677                EVP_PKEY_meth_set_init
                0x00000000401ca67c                EVP_PKEY_meth_set_copy
                0x00000000401ca681                EVP_PKEY_meth_set_cleanup
                0x00000000401ca686                EVP_PKEY_meth_set_paramgen
                0x00000000401ca68f                EVP_PKEY_meth_set_keygen
                0x00000000401ca698                EVP_PKEY_meth_set_sign
                0x00000000401ca6a1                EVP_PKEY_meth_set_verify
                0x00000000401ca6aa                EVP_PKEY_meth_set_verify_recover
                0x00000000401ca6b3                EVP_PKEY_meth_set_signctx
                0x00000000401ca6bc                EVP_PKEY_meth_set_verifyctx
                0x00000000401ca6cb                EVP_PKEY_meth_set_encrypt
                0x00000000401ca6da                EVP_PKEY_meth_set_decrypt
                0x00000000401ca6e9                EVP_PKEY_meth_set_derive
                0x00000000401ca6f8                EVP_PKEY_meth_set_ctrl
                0x00000000401ca71d                EVP_PKEY_asn1_get_count
                0x00000000401ca740                EVP_PKEY_asn1_get0
                0x00000000401ca775                EVP_PKEY_asn1_find
                0x00000000401ca80b                EVP_PKEY_asn1_find_str
                0x00000000401ca893                EVP_PKEY_asn1_add0
                0x00000000401ca8e4                EVP_PKEY_asn1_get0_info
                0x00000000401ca933                EVP_PKEY_get0_asn1
                0x00000000401ca938                EVP_PKEY_asn1_copy
                0x00000000401ca9fb                EVP_PKEY_asn1_free
                0x00000000401caa31                EVP_PKEY_asn1_new
                0x00000000401cab8a                EVP_PKEY_asn1_add_alias
                0x00000000401cabba                EVP_PKEY_asn1_set_public
                0x00000000401cabd8                EVP_PKEY_asn1_set_private
                0x00000000401cabe5                EVP_PKEY_asn1_set_param
                0x00000000401cac0c                EVP_PKEY_asn1_set_free
                0x00000000401cac14                EVP_PKEY_asn1_set_ctrl
                0x00000000401cac1c                EVP_PKEY_sign_init
                0x00000000401cac82                EVP_PKEY_sign
                0x00000000401cad6d                EVP_PKEY_verify_init
                0x00000000401cadd3                EVP_PKEY_verify
                0x00000000401cae46                EVP_PKEY_verify_recover_init
                0x00000000401caeac                EVP_PKEY_verify_recover
                0x00000000401caf97                EVP_PKEY_encrypt_init
                0x00000000401cb003                EVP_PKEY_encrypt
                0x00000000401cb0f7                EVP_PKEY_decrypt_init
                0x00000000401cb163                EVP_PKEY_decrypt
                0x00000000401cb257                EVP_PKEY_derive_init
                0x00000000401cb2c3                EVP_PKEY_derive_set_peer
                0x00000000401cb4a2                EVP_PKEY_derive
                0x00000000401cb6a8                ASN1_PCTX_new
                0x00000000401cb717                ASN1_PCTX_free
                0x00000000401cb725                ASN1_PCTX_get_flags
                0x00000000401cb729                ASN1_PCTX_set_flags
                0x00000000401cb72d                ASN1_PCTX_get_nm_flags
                0x00000000401cb732                ASN1_PCTX_set_nm_flags
                0x00000000401cb737                ASN1_PCTX_get_cert_flags
                0x00000000401cb73c                ASN1_PCTX_set_cert_flags
                0x00000000401cb741                ASN1_PCTX_get_oid_flags
                0x00000000401cb746                ASN1_PCTX_set_oid_flags
                0x00000000401cb74b                ASN1_PCTX_get_str_flags
                0x00000000401cb750                ASN1_PCTX_set_str_flags
                0x00000000401cb755                asn1_template_print_ctx
                0x00000000401cc02a                ASN1_item_print
                0x00000000401cc1f2                EVP_DigestSignInit
                0x00000000401cc206                EVP_DigestVerifyInit
                0x00000000401cc21a                EVP_DigestSignFinal
                0x00000000401cc33b                EVP_DigestVerifyFinal
                0x00000000401cc3ff                WHIRLPOOL_Init
                0x00000000401cc41c                WHIRLPOOL_BitUpdate
                0x00000000401cc77a                WHIRLPOOL_Update
                0x00000000401cc84b                WHIRLPOOL_Final
                0x00000000401cc953                WHIRLPOOL
                0x00000000401cfb86                DHparams_print
                0x00000000401d1a60                whirlpool_block
                0x00000000401d25dd                EVP_PKEY_paramgen_init
                0x00000000401d2643                EVP_PKEY_paramgen
                0x00000000401d26fd                EVP_PKEY_keygen_init
                0x00000000401d2763                EVP_PKEY_keygen
                0x00000000401d281d                EVP_PKEY_CTX_set_cb
                0x00000000401d2822                EVP_PKEY_CTX_get_cb
                0x00000000401d2827                evp_pkey_set_cb_translate
                0x00000000401d283a                EVP_PKEY_CTX_get_keygen_info
                0x00000000401d2863                EVP_PKEY_new_mac_key
                0x00000000401d29bc                CMS_SignedData_init
                0x00000000401d29d3                cms_set1_SignerIdentifier
                0x00000000401d2ad6                cms_SignerIdentifier_get0_signer_id
                0x00000000401d2b20                cms_SignerIdentifier_cert_cmp
                0x00000000401d2b9d                CMS_get0_SignerInfos
                0x00000000401d2bbb                CMS_get0_signers
                0x00000000401d2c43                CMS_SignerInfo_set1_signer_cert
                0x00000000401d2ca5                CMS_SignerInfo_get0_signer_id
                0x00000000401d2cb0                CMS_SignerInfo_cert_cmp
                0x00000000401d2cc2                CMS_set1_signers_certs
                0x00000000401d2dec                CMS_SignerInfo_get0_algs
                0x00000000401d2e1e                CMS_SignerInfo_sign
                0x00000000401d308c                cms_SignedData_final
                0x00000000401d328c                CMS_SignerInfo_verify
                0x00000000401d33b2                cms_SignedData_init_bio
                0x00000000401d355b                CMS_SignerInfo_verify_content
                0x00000000401d371d                CMS_add_smimecap
                0x00000000401d3773                CMS_add_simple_smimecap
                0x00000000401d3898                CMS_add_standard_smimecap
                0x00000000401d39a2                CMS_add1_signer
                0x00000000401d3ec2                CMS_get0_RecipientInfos
                0x00000000401d3ee0                CMS_RecipientInfo_type
                0x00000000401d3ee3                CMS_EnvelopedData_create
                0x00000000401d3fcb                CMS_add1_recipient_cert
                0x00000000401d41bd                CMS_RecipientInfo_ktri_get0_algs
                0x00000000401d4225                CMS_RecipientInfo_ktri_get0_signer_id
                0x00000000401d4266                CMS_RecipientInfo_ktri_cert_cmp
                0x00000000401d42a7                CMS_RecipientInfo_set0_pkey
                0x00000000401d42e9                CMS_RecipientInfo_kekri_id_cmp
                0x00000000401d434c                CMS_add0_recipient_key
                0x00000000401d45c0                CMS_RecipientInfo_kekri_get0_id
                0x00000000401d466a                CMS_RecipientInfo_set0_key
                0x00000000401d46b0                CMS_RecipientInfo_decrypt
                0x00000000401d4a86                cms_EnvelopedData_init_bio
                0x00000000401d4ed7                EC_KEY_print
                0x00000000401d4f35                ECParameters_print
                0x00000000401d4f86                ECPKParameters_print
                0x00000000401d59e1                CMS_signed_get_attr_count
                0x00000000401d59f3                CMS_signed_get_attr_by_NID
                0x00000000401d5a05                CMS_signed_get_attr_by_OBJ
                0x00000000401d5a17                CMS_signed_get_attr
                0x00000000401d5a29                CMS_signed_delete_attr
                0x00000000401d5a3b                CMS_signed_add1_attr
                0x00000000401d5a56                CMS_signed_add1_attr_by_OBJ
                0x00000000401d5a71                CMS_signed_add1_attr_by_NID
                0x00000000401d5a8c                CMS_signed_add1_attr_by_txt
                0x00000000401d5aa7                CMS_signed_get0_data_by_OBJ
                0x00000000401d5ab9                CMS_unsigned_get_attr_count
                0x00000000401d5acb                CMS_unsigned_get_attr_by_NID
                0x00000000401d5add                CMS_unsigned_get_attr_by_OBJ
                0x00000000401d5aef                CMS_unsigned_get_attr
                0x00000000401d5b01                CMS_unsigned_delete_attr
                0x00000000401d5b13                CMS_unsigned_add1_attr
                0x00000000401d5b2e                CMS_unsigned_add1_attr_by_OBJ
                0x00000000401d5b49                CMS_unsigned_add1_attr_by_NID
                0x00000000401d5b64                CMS_unsigned_add1_attr_by_txt
                0x00000000401d5b7f                CMS_unsigned_get0_data_by_OBJ
                0x00000000401d5cd2                d2i_CMS_ContentInfo
                0x00000000401d5ce5                i2d_CMS_ContentInfo
                0x00000000401d5cf8                CMS_ContentInfo_new
                0x00000000401d5d0b                CMS_ContentInfo_free
                0x00000000401d5d1e                CMS_ContentInfo_print_ctx
                0x00000000401d5d34                CMS_get0_type
                0x00000000401d5d38                CMS_get0_content
                0x00000000401d5e06                cms_content_bio
                0x00000000401d5e58                CMS_dataInit
                0x00000000401d5f3b                CMS_dataFinal
                0x00000000401d6098                CMS_get0_eContentType
                0x00000000401d60b5                CMS_set1_eContentType
                0x00000000401d6108                CMS_is_detached
                0x00000000401d612c                CMS_set_detached
                0x00000000401d61b8                cms_Data_create
                0x00000000401d61e5                cms_DigestAlgorithm_set
                0x00000000401d6229                cms_DigestAlgorithm_init_bio
                0x00000000401d631d                cms_DigestAlgorithm_find_ctx
                0x00000000401d63f4                CMS_add0_CertificateChoices
                0x00000000401d646d                CMS_add0_cert
                0x00000000401d651c                CMS_add1_cert
                0x00000000401d6557                CMS_add0_RevocationInfoChoice
                0x00000000401d65d0                CMS_add0_crl
                0x00000000401d65f6                CMS_add1_crl
                0x00000000401d6631                CMS_get1_certs
                0x00000000401d66f0                CMS_get1_crls
                0x00000000401d68c4                cms_EncryptedContent_init_bio
                0x00000000401d6d9b                cms_EncryptedContent_init
                0x00000000401d6e11                CMS_EncryptedData_set1_key
                0x00000000401d6f06                cms_EncryptedData_init_bio
                0x00000000401d6f31                AES_wrap_key
                0x00000000401d705b                AES_unwrap_key
                0x00000000401d71c2                cms_DigestedData_create
                0x00000000401d7249                cms_DigestedData_init_bio
                0x00000000401d725f                cms_DigestedData_do_final
                0x00000000401d735d                CMS_stream
                0x00000000401d73dc                d2i_CMS_bio
                0x00000000401d73f5                i2d_CMS_bio
                0x00000000401d740e                PEM_read_bio_CMS
                0x00000000401d7432                PEM_write_bio_CMS
                0x00000000401d7462                BIO_new_CMS
                0x00000000401d7475                i2d_CMS_bio_stream
                0x00000000401d7489                PEM_write_bio_CMS_stream
                0x00000000401d74a3                SMIME_write_CMS
                0x00000000401d750d                SMIME_read_CMS
                0x00000000401d7dd1                SMIME_read_ASN1
                0x00000000401d81f7                SMIME_crlf_copy
                0x00000000401d832d                i2d_ASN1_bio_stream
                0x00000000401d8496                PEM_write_bio_ASN1_stream
                0x00000000401d8506                SMIME_write_ASN1
                0x00000000401d8b83                SMIME_text
                0x00000000401d8e85                BIO_new_NDEF
                0x00000000401d95dd                BIO_f_asn1
                0x00000000401d95e3                BIO_asn1_set_prefix
                0x00000000401d9607                BIO_asn1_get_prefix
                0x00000000401d9640                BIO_asn1_set_suffix
                0x00000000401d9664                BIO_asn1_get_suffix
                0x00000000401d969d                chelp_snprintf
                0x00000000401d96e2                chelp_sprintf
                0x00000000401d9732                chelp_print
                0x00000000401d974d                chelp_printf
                0x00000000401d97dd                chelp_mod_64_32_32
                0x00000000401d97ed                chelp_div_64_32_32
                0x00000000401d97fb                chelp_div_64_32_64
                0x00000000401d9809                chelp_mul_64_64_64
                0x00000000401d9811                BIO_printf
                0x00000000401d9857                BIO_snprintf
                0x00000000401d9895                chelp_abort
                0x00000000401d98a8                RAND_poll
                0x00000000401d98ca                InitCryptoLibrary
                0x00000000401d9932                chelp_malloc
                0x00000000401d994c                chelp_realloc
                0x00000000401d9973                chelp_free
                0x00000000401d9987                chelp_swap
                0x00000000401d99b5                chelp_qsort
                0x00000000401d9cea                chelp_bsearch
                0x00000000401d9dc2                chelp_memchr
                0x00000000401d9e06                chelp_memmove
                0x00000000401d9e8f                chelp_memcmp
                0x00000000401d9ef9                chelp_memcpy
                0x00000000401d9f22                chelp_memset
                0x00000000401d9f48                chelp_isupper
                0x00000000401d9f56                chelp_islower
                0x00000000401d9f64                chelp_toupper
                0x00000000401d9f6b                chelp_tolower
                0x00000000401d9f72                chelp_isspace
                0x00000000401d9f8a                chelp_isdigit
                0x00000000401d9f98                chelp_isxdigit
                0x00000000401d9fb7                chelp_isalpha
                0x00000000401d9fc8                chelp_isalnum
                0x00000000401d9fe4                chelp_strtoul_ex
                0x00000000401da1ec                chelp_strtol
                0x00000000401da1f8                chelp_strtoul
                0x00000000401da204                chelp_strcpy
                0x00000000401da22c                chelp_strncpy
                0x00000000401da298                chelp_strcat
                0x00000000401da2d5                chelp_strcmp
                0x00000000401da326                chelp_strncmp
                0x00000000401da469                chelp_stricmp
                0x00000000401da49e                chelp_strchr
                0x00000000401da4d4                chelp_strrchr
                0x00000000401da4fe                chelp_strlen
                0x00000000401da52c                chelp_strncasecmp
                0x00000000401da576                decryptcfg
                0x00000000401da5ea                ASN1_BIT_STRING_set
                0x00000000401da5f8                i2c_ASN1_BIT_STRING
                0x00000000401da6fc                c2i_ASN1_BIT_STRING
                0x00000000401da868                ASN1_BIT_STRING_set_bit
                0x00000000401da9d7                ASN1_BIT_STRING_get_bit
                0x00000000401daa27                ASN1_BIT_STRING_check
                0x00000000401daa80                d2i_ASN1_type_bytes
                0x00000000401dac2e                i2d_ASN1_bytes
                0x00000000401dacd3                d2i_ASN1_bytes
                0x00000000401db426                ASN1_d2i_bio
                0x00000000401db487                ASN1_item_d2i_bio
                0x00000000401db4ee                ASN1_digest
                0x00000000401db5a1                ASN1_item_digest
                0x00000000401db60e                ASN1_dup
                0x00000000401db6b6                ASN1_item_dup
                0x00000000401db743                ASN1_ENUMERATED_set
                0x00000000401db851                ASN1_ENUMERATED_get
                0x00000000401db8d9                BN_to_ASN1_ENUMERATED
                0x00000000401db9ca                ASN1_ENUMERATED_to_BN
                0x00000000401dba2a                ASN1_GENERALIZEDTIME_check
                0x00000000401dbc6d                ASN1_GENERALIZEDTIME_set_string
                0x00000000401dbcd6                ASN1_GENERALIZEDTIME_adj
                0x00000000401dbe1b                ASN1_GENERALIZEDTIME_set
                0x00000000401dbe33                ASN1_i2d_bio
                0x00000000401dbee8                ASN1_item_i2d_bio
                0x00000000401dbf85                ASN1_INTEGER_dup
                0x00000000401dbf93                ASN1_INTEGER_cmp
                0x00000000401dbfc6                i2c_ASN1_INTEGER
                0x00000000401dc13d                c2i_ASN1_INTEGER
                0x00000000401dc364                d2i_ASN1_UINTEGER
                0x00000000401dc580                ASN1_INTEGER_set
                0x00000000401dc68e                ASN1_INTEGER_get
                0x00000000401dc719                BN_to_ASN1_INTEGER
                0x00000000401dc820                ASN1_INTEGER_to_BN
                0x00000000401dc880                i2d_ASN1_OBJECT
                0x00000000401dc912                a2d_ASN1_OBJECT
                0x00000000401dce1c                i2t_ASN1_OBJECT
                0x00000000401dce2f                i2a_ASN1_OBJECT
                0x00000000401dcf0c                ASN1_OBJECT_new
                0x00000000401dcf80                ASN1_OBJECT_free
                0x00000000401dcfed                c2i_ASN1_OBJECT
                0x00000000401dd18d                d2i_ASN1_OBJECT
                0x00000000401dd21b                ASN1_OBJECT_create
                0x00000000401dd24d                ASN1_OCTET_STRING_dup
                0x00000000401dd25b                ASN1_OCTET_STRING_cmp
                0x00000000401dd269                ASN1_OCTET_STRING_set
                0x00000000401dd277                ASN1_sign
                0x00000000401dd533                ASN1_item_sign
                0x00000000401ddf35                X509_NAME_print_ex
                0x00000000401de360                ASN1_STRING_print_ex
                0x00000000401de379                ASN1_STRING_to_UTF8
                0x00000000401de3fb                d2i_ASN1_TIME
                0x00000000401de40e                i2d_ASN1_TIME
                0x00000000401de421                ASN1_TIME_new
                0x00000000401de434                ASN1_TIME_free
                0x00000000401de447                ASN1_TIME_adj
                0x00000000401de4f5                ASN1_TIME_set
                0x00000000401de50d                ASN1_TIME_check
                0x00000000401de534                ASN1_TIME_to_generalizedtime
                0x00000000401de638                ASN1_TIME_set_string
                0x00000000401de6b0                ASN1_TYPE_get
                0x00000000401de6c5                ASN1_TYPE_set
                0x00000000401de71c                ASN1_TYPE_set1
                0x00000000401de79b                ASN1_TYPE_cmp
                0x00000000401de7ed                ASN1_UTCTIME_check
                0x00000000401de9d1                ASN1_UTCTIME_set_string
                0x00000000401dea3a                ASN1_UTCTIME_adj
                0x00000000401debaa                ASN1_UTCTIME_set
                0x00000000401debc2                ASN1_UTCTIME_cmp_time_t
                0x00000000401ded46                UTF8_getc
                0x00000000401df0a7                UTF8_putc
                0x00000000401df2f0                ASN1_verify
                0x00000000401df452                ASN1_item_verify
                0x00000000401df66e                AES_cbc_encrypt
                0x00000000401df694                AES_cfb128_encrypt
                0x00000000401df6ac                AES_cfb1_encrypt
                0x00000000401df6c4                AES_cfb8_encrypt
                0x00000000401df6dc                AES_ecb_encrypt
                0x00000000401df6f6                AES_ofb128_encrypt
                0x00000000401df709                ERR_load_ASN1_strings
                0x00000000401df7dd                ASN1_check_infinite_end
                0x00000000401df7e4                ASN1_const_check_infinite_end
                0x00000000401df7eb                ASN1_get_object
                0x00000000401df991                ASN1_put_object
                0x00000000401dfab1                ASN1_put_eoc
                0x00000000401dfac8                ASN1_object_size
                0x00000000401dfaf7                asn1_Finish
                0x00000000401dfafe                asn1_const_Finish
                0x00000000401dfb05                asn1_GetSequence
                0x00000000401dfb99                ASN1_STRING_set
                0x00000000401dfc7c                ASN1_STRING_copy
                0x00000000401dfcbc                ASN1_STRING_set0
                0x00000000401dfce1                ASN1_STRING_type_new
                0x00000000401dfd3e                ASN1_STRING_new
                0x00000000401dfd51                ASN1_STRING_free
                0x00000000401dfd79                ASN1_STRING_dup
                0x00000000401dfdcd                ASN1_STRING_cmp
                0x00000000401dfe04                asn1_add_error
                0x00000000401dfe6b                ASN1_STRING_length
                0x00000000401dfe6e                ASN1_STRING_length_set
                0x00000000401dfe71                ASN1_STRING_type
                0x00000000401dfe75                ASN1_STRING_data
                0x00000000401dfe7a                ASN1_tag2str
                0x00000000401e0a8b                ASN1_parse
                0x00000000401e0ab3                ASN1_parse_dump
                0x00000000401e0af4                BIO_dump_indent_cb
                0x00000000401e0e8a                BIO_dump_cb
                0x00000000401e0e9e                BIO_dump
                0x00000000401e0eb9                BIO_dump_indent
                0x00000000401e1868                BIO_f_buffer
                0x00000000401e186e                BF_cfb64_encrypt
                0x00000000401e1a66                BF_options
                0x00000000401e1a6c                BF_ecb_encrypt
                0x00000000401e1b26                BF_encrypt
                0x00000000401e1f1c                BF_decrypt
                0x00000000401e2312                BF_cbc_encrypt
                0x00000000401e28f8                BF_ofb64_encrypt
                0x00000000401e2aa4                BF_set_key
                0x00000000401e387c                BIO_f_base64
                0x00000000401e3f61                BIO_f_cipher
                0x00000000401e3f67                BIO_set_cipher
                0x00000000401e4000                ERR_load_BIO_strings
                0x00000000401e4373                BIO_f_md
                0x00000000401e4379                BN_uadd
                0x00000000401e44a2                BN_usub
                0x00000000401e46c9                BN_add
                0x00000000401e4756                BN_sub
                0x00000000401e483e                bn_mul_add_words
                0x00000000401e4a79                bn_mul_words
                0x00000000401e4c74                bn_sqr_words
                0x00000000401e4da1                bn_div_words
                0x00000000401e4eba                bn_add_words
                0x00000000401e4faf                bn_sub_words
                0x00000000401e50b8                bn_mul_comba8
                0x00000000401e687f                bn_mul_comba4
                0x00000000401e6e47                bn_sqr_comba8
                0x00000000401e7e36                bn_sqr_comba4
                0x00000000401e8207                BN_BLINDING_free
                0x00000000401e8252                BN_BLINDING_new
                0x00000000401e832d                BN_BLINDING_invert_ex
                0x00000000401e838d                BN_BLINDING_invert
                0x00000000401e83a6                BN_BLINDING_get_thread_id
                0x00000000401e83ab                BN_BLINDING_set_thread_id
                0x00000000401e83b0                BN_BLINDING_thread_id
                0x00000000401e83b5                BN_BLINDING_get_flags
                0x00000000401e83ba                BN_BLINDING_set_flags
                0x00000000401e83bf                BN_BLINDING_create_param
                0x00000000401e8546                BN_BLINDING_update
                0x00000000401e865b                BN_BLINDING_convert_ex
                0x00000000401e8706                BN_BLINDING_convert
                0x00000000401e871f                BN_CTX_init
                0x00000000401e879e                BN_CTX_new
                0x00000000401e8836                BN_CTX_free
                0x00000000401e88ac                BN_CTX_start
                0x00000000401e8977                BN_CTX_end
                0x00000000401e89e0                BN_CTX_get
                0x00000000401e8b20                BN_div
                0x00000000401e95c8                ERR_load_BN_strings
                0x00000000401e96ec                BN_exp
                0x00000000401e98a4                BN_mod_exp_recp
                0x00000000401e9cce                BN_mod_exp_mont_consttime
                0x00000000401ea2f5                BN_mod_exp_mont
                0x00000000401ea7ce                BN_mod_exp_mont_word
                0x00000000401eac76                BN_mod_exp
                0x00000000401eacc3                BN_mod_exp_simple
                0x00000000401eb076                BN_gcd
                0x00000000401eb284                BN_mod_inverse
                0x00000000401ebcf2                BN_nnmod
                0x00000000401ebd47                BN_mod_add
                0x00000000401ebd73                BN_mod_add_quick
                0x00000000401ebdb3                BN_mod_sub
                0x00000000401ebddf                BN_mod_sub_quick
                0x00000000401ebe14                BN_mod_mul
                0x00000000401ebec0                BN_mod_sqr
                0x00000000401ebef4                BN_mod_lshift1
                0x00000000401ebf20                BN_mod_lshift1_quick
                0x00000000401ebf60                BN_mod_lshift_quick
                0x00000000401ec047                BN_mod_lshift
                0x00000000401ec498                BN_mod_mul_montgomery
                0x00000000401ec541                BN_from_montgomery
                0x00000000401ec5b1                BN_MONT_CTX_init
                0x00000000401ec5ed                BN_MONT_CTX_new
                0x00000000401ec61e                BN_MONT_CTX_free
                0x00000000401ec653                BN_MONT_CTX_set
                0x00000000401ec83c                BN_MONT_CTX_copy
                0x00000000401ec8b7                BN_MONT_CTX_set_locked
                0x00000000401ec985                bn_sub_part_words
                0x00000000401ecbfc                bn_add_part_words
                0x00000000401ecf4f                bn_mul_normal
                0x00000000401ed094                bn_mul_recursive
                0x00000000401ed5fe                bn_mul_high
                0x00000000401edac0                bn_mul_part_recursive
                0x00000000401ee003                BN_mul
                0x00000000401ee364                bn_mul_low_normal
                0x00000000401ee432                bn_mul_low_recursive
                0x00000000401ee62a                BN_GENCB_call
                0x00000000401ee67d                BN_is_prime_fasttest_ex
                0x00000000401eebdb                BN_generate_prime_ex
                0x00000000401ef1b7                BN_is_prime_ex
                0x00000000401ef1cd                BN_RECP_CTX_init
                0x00000000401ef1ef                BN_RECP_CTX_new
                0x00000000401ef220                BN_RECP_CTX_free
                0x00000000401ef248                BN_RECP_CTX_set
                0x00000000401ef291                BN_reciprocal
                0x00000000401ef30b                BN_div_recp
                0x00000000401ef5c0                BN_mod_mul_reciprocal
                0x00000000401ef66f                BN_lshift1
                0x00000000401ef736                BN_rshift1
                0x00000000401ef81f                BN_lshift
                0x00000000401ef96b                BN_rshift
                0x00000000401efae9                bn_sqr_normal
                0x00000000401efbc6                bn_sqr_recursive
                0x00000000401efd73                BN_sqr
                0x00000000401efff7                BIO_s_null
                0x00000000401efffd                ERR_load_BUF_strings
                0x00000000401f0035                CAST_cfb64_encrypt
                0x00000000401f022d                CAST_ecb_encrypt
                0x00000000401f02e7                CAST_encrypt
                0x00000000401f0737                CAST_decrypt
                0x00000000401f0b7d                CAST_cbc_encrypt
                0x00000000401f1163                CAST_ofb64_encrypt
                0x00000000401f130f                CAST_set_key
                0x00000000401f1cdc                DES_ede3_cfb64_encrypt
                0x00000000401f1f2f                DES_ede3_cfb_encrypt
                0x00000000401f2797                DES_cfb64_encrypt
                0x00000000401f29cf                DES_cfb_encrypt
                0x00000000401f3016                ERR_load_COMP_strings
                0x00000000401f304e                ERR_load_CONF_strings
                0x00000000401f3086                ERR_load_CRYPTO_strings
                0x00000000401f30be                d2i_PrivateKey
                0x00000000401f320f                d2i_AutoPrivateKey
                0x00000000401f335a                d2i_DHparams
                0x00000000401f336d                i2d_DHparams
                0x00000000401f3380                DHparams_dup
                0x00000000401f3396                DH_check
                0x00000000401f34b5                DH_check_pub_key
                0x00000000401f3544                ERR_load_DH_strings
                0x00000000401f357c                DH_generate_parameters_ex
                0x00000000401f376f                EVP_MD_CTX_init
                0x00000000401f3787                EVP_MD_CTX_create
                0x00000000401f37b1                EVP_DigestInit_ex
                0x00000000401f38b1                EVP_DigestInit
                0x00000000401f38d9                EVP_DigestUpdate
                0x00000000401f38e5                EVP_DigestFinal_ex
                0x00000000401f3966                EVP_MD_CTX_cleanup
                0x00000000401f39f6                EVP_DigestFinal
                0x00000000401f3a17                EVP_MD_CTX_copy_ex
                0x00000000401f3b41                EVP_MD_CTX_copy
                0x00000000401f3b64                EVP_Digest
                0x00000000401f3bf1                EVP_MD_CTX_destroy
                0x00000000401f3cad                d2i_DSA_SIG
                0x00000000401f3cc0                i2d_DSA_SIG
                0x00000000401f3cd3                DSA_SIG_new
                0x00000000401f3ce6                DSA_SIG_free
                0x00000000401f3cf9                d2i_DSAPrivateKey
                0x00000000401f3d0c                i2d_DSAPrivateKey
                0x00000000401f3d1f                d2i_DSAparams
                0x00000000401f3d32                i2d_DSAparams
                0x00000000401f3d45                d2i_DSAPublicKey
                0x00000000401f3d58                i2d_DSAPublicKey
                0x00000000401f3d6b                DSAparams_dup
                0x00000000401f3d81                ERR_load_DSA_strings
                0x00000000401f3db9                dsa_builtin_paramgen
                0x00000000401f461d                DSA_generate_parameters_ex
                0x00000000401f46ad                DSA_generate_key
                0x00000000401f480f                DSA_set_default_method
                0x00000000401f4817                DSA_get_default_method
                0x00000000401f4845                DSA_set_method
                0x00000000401f487e                DSA_new_method
                0x00000000401f498b                DSA_new
                0x00000000401f499e                DSA_free
                0x00000000401f4a61                DSA_up_ref
                0x00000000401f4a91                DSA_size
                0x00000000401f4aeb                DSA_get_ex_new_index
                0x00000000401f4b0d                DSA_set_ex_data
                0x00000000401f4b1f                DSA_get_ex_data
                0x00000000401f4b31                DSA_dup_DH
                0x00000000401f54f5                DSA_OpenSSL
                0x00000000401f54fb                DSA_do_sign
                0x00000000401f550b                DSA_sign
                0x00000000401f557c                DSA_sign_setup
                0x00000000401f558c                DSA_do_verify
                0x00000000401f559c                DSA_verify
                0x00000000401f5615                ERR_load_DSO_strings
                0x00000000401f5f3a                EC_GROUP_get_basis_type
                0x00000000401f5f96                EC_GROUP_get_trinomial_basis
                0x00000000401f6019                EC_GROUP_get_pentanomial_basis
                0x00000000401f60de                X9_62_PENTANOMIAL_new
                0x00000000401f60f1                X9_62_PENTANOMIAL_free
                0x00000000401f6104                X9_62_CHARACTERISTIC_TWO_new
                0x00000000401f6117                X9_62_CHARACTERISTIC_TWO_free
                0x00000000401f612a                ECPARAMETERS_new
                0x00000000401f613d                ECPARAMETERS_free
                0x00000000401f6150                d2i_ECPKPARAMETERS
                0x00000000401f6163                i2d_ECPKPARAMETERS
                0x00000000401f6176                ECPKPARAMETERS_new
                0x00000000401f6189                ECPKPARAMETERS_free
                0x00000000401f6de2                d2i_EC_PRIVATEKEY
                0x00000000401f6df5                i2d_EC_PRIVATEKEY
                0x00000000401f6e08                EC_PRIVATEKEY_new
                0x00000000401f6e1b                EC_PRIVATEKEY_free
                0x00000000401f6e2e                d2i_ECPKParameters
                0x00000000401f6eda                i2d_ECPKParameters
                0x00000000401f6f6b                d2i_ECPrivateKey
                0x00000000401f7221                i2d_ECPrivateKey
                0x00000000401f75b6                i2d_ECParameters
                0x00000000401f75f3                d2i_ECParameters
                0x00000000401f76e3                o2i_ECPublicKey
                0x00000000401f77c4                i2o_ECPublicKey
                0x00000000401f790f                EC_GROUP_new_by_curve_name
                0x00000000401f7e3b                EC_get_builtin_curves
                0x00000000401f7e85                EC_GROUP_new_curve_GFp
                0x00000000401f7f64                EC_GROUP_new_curve_GF2m
                0x00000000401f7fc8                ERR_load_EC_strings
                0x00000000401f8000                EC_KEY_new
                0x00000000401f8083                EC_KEY_free
                0x00000000401f80f9                EC_KEY_new_by_curve_name
                0x00000000401f813e                EC_KEY_copy
                0x00000000401f82e8                EC_KEY_dup
                0x00000000401f832f                EC_KEY_up_ref
                0x00000000401f835f                EC_KEY_generate_key
                0x00000000401f851d                EC_KEY_check_key
                0x00000000401f87a8                EC_KEY_get0_group
                0x00000000401f87ad                EC_KEY_set_group
                0x00000000401f87e3                EC_KEY_get0_private_key
                0x00000000401f87e8                EC_KEY_set_private_key
                0x00000000401f881e                EC_KEY_get0_public_key
                0x00000000401f8823                EC_KEY_set_public_key
                0x00000000401f885d                EC_KEY_get_enc_flags
                0x00000000401f8861                EC_KEY_set_enc_flags
                0x00000000401f8865                EC_KEY_get_conv_form
                0x00000000401f8869                EC_KEY_set_conv_form
                0x00000000401f8884                EC_KEY_get_key_method_data
                0x00000000401f88ef                EC_KEY_insert_key_method_data
                0x00000000401f897f                EC_KEY_set_asn1_flag
                0x00000000401f8997                EC_KEY_precompute_mult
                0x00000000401f89b4                EC_GROUP_new
                0x00000000401f8acb                EC_GROUP_method_of
                0x00000000401f8acf                EC_METHOD_get_field_type
                0x00000000401f8ad2                EC_GROUP_get0_generator
                0x00000000401f8ad7                EC_GROUP_get_order
                0x00000000401f8aff                EC_GROUP_get_cofactor
                0x00000000401f8b27                EC_GROUP_set_curve_name
                0x00000000401f8b2b                EC_GROUP_get_curve_name
                0x00000000401f8b2f                EC_GROUP_set_asn1_flag
                0x00000000401f8b33                EC_GROUP_get_asn1_flag
                0x00000000401f8b37                EC_GROUP_set_point_conversion_form
                0x00000000401f8b3b                EC_GROUP_get_point_conversion_form
                0x00000000401f8b3f                EC_GROUP_set_seed
                0x00000000401f8bb3                EC_GROUP_get0_seed
                0x00000000401f8bb8                EC_GROUP_get_seed_len
                0x00000000401f8bbd                EC_GROUP_set_curve_GFp
                0x00000000401f8bfa                EC_GROUP_get_curve_GFp
                0x00000000401f8c37                EC_GROUP_set_curve_GF2m
                0x00000000401f8c74                EC_GROUP_get_curve_GF2m
                0x00000000401f8cb1                EC_GROUP_get_degree
                0x00000000401f8cee                EC_GROUP_check_discriminant
                0x00000000401f8d2b                EC_EX_DATA_set_data
                0x00000000401f8dec                EC_EX_DATA_get_data
                0x00000000401f8e1c                EC_EX_DATA_free_data
                0x00000000401f8e6d                EC_EX_DATA_clear_free_data
                0x00000000401f8ebe                EC_EX_DATA_free_all_data
                0x00000000401f8efa                EC_EX_DATA_clear_free_all_data
                0x00000000401f8f36                EC_POINT_new
                0x00000000401f900a                EC_POINT_free
                0x00000000401f902c                EC_GROUP_free
                0x00000000401f9085                EC_POINT_clear_free
                0x00000000401f90c1                EC_GROUP_clear_free
                0x00000000401f9141                EC_POINT_copy
                0x00000000401f91b3                EC_GROUP_copy
                0x00000000401f93d0                EC_GROUP_dup
                0x00000000401f9427                EC_GROUP_set_generator
                0x00000000401f94fe                EC_POINT_dup
                0x00000000401f9558                EC_POINT_method_of
                0x00000000401f955c                EC_POINT_set_to_infinity
                0x00000000401f95c4                EC_POINT_set_Jprojective_coordinates_GFp
                0x00000000401f962d                EC_POINT_get_Jprojective_coordinates_GFp
                0x00000000401f9696                EC_POINT_set_affine_coordinates_GFp
                0x00000000401f9702                EC_POINT_set_affine_coordinates_GF2m
                0x00000000401f976e                EC_POINT_get_affine_coordinates_GFp
                0x00000000401f97da                EC_POINT_get_affine_coordinates_GF2m
                0x00000000401f9846                EC_POINT_set_compressed_coordinates_GFp
                0x00000000401f98b2                EC_POINT_set_compressed_coordinates_GF2m
                0x00000000401f991e                EC_POINT_point2oct
                0x00000000401f998a                EC_POINT_oct2point
                0x00000000401f99f6                EC_POINT_add
                0x00000000401f9a6c                EC_POINT_dbl
                0x00000000401f9add                EC_POINT_invert
                0x00000000401f9b4a                EC_POINT_is_at_infinity
                0x00000000401f9bb5                EC_POINT_is_on_curve
                0x00000000401f9c20                EC_POINT_cmp
                0x00000000401f9c91                EC_GROUP_cmp
                0x00000000401f9f62                EC_POINT_make_affine
                0x00000000401f9fcd                EC_POINTs_make_affine
                0x00000000401fa05a                EC_POINTs_mul
                0x00000000401fa093                EC_POINT_mul
                0x00000000401fa0c9                EC_GROUP_precompute_mult
                0x00000000401fa0f9                EC_GROUP_have_precompute_mult
                0x00000000401fa533                ec_wNAF_mul
                0x00000000401fb370                ec_wNAF_precompute_mult
                0x00000000401fb9ce                ec_wNAF_have_precompute_mult
                0x00000000401fb9f8                EC_POINT_point2bn
                0x00000000401fbaae                EC_POINT_bn2point
                0x00000000401fbbb9                EC_POINT_point2hex
                0x00000000401fbcca                EC_POINT_hex2point
                0x00000000401fbd26                ERR_load_ECDH_strings
                0x00000000401fbd5e                ECDH_compute_key
                0x00000000401fbdd5                ECDH_set_default_method
                0x00000000401fbddd                ECDH_get_default_method
                0x00000000401fbeab                ecdh_check
                0x00000000401fbf1a                ECDH_set_method
                0x00000000401fbf3a                ECDH_get_ex_new_index
                0x00000000401fbf5c                ECDH_set_ex_data
                0x00000000401fbf8e                ECDH_get_ex_data
                0x00000000401fc36e                ECDH_OpenSSL
                0x00000000401fc374                ec_GFp_mont_group_init
                0x00000000401fc395                ec_GFp_mont_group_finish
                0x00000000401fc3db                ec_GFp_mont_group_clear_finish
                0x00000000401fc421                ec_GFp_mont_group_copy
                0x00000000401fc503                ec_GFp_mont_field_mul
                0x00000000401fc54f                ec_GFp_mont_field_sqr
                0x00000000401fc59b                ec_GFp_mont_field_encode
                0x00000000401fc5eb                ec_GFp_mont_group_set_curve
                0x00000000401fc79b                ec_GFp_mont_field_decode
                0x00000000401fc7e4                ec_GFp_mont_field_set_to_one
                0x00000000401fc833                EC_GFp_mont_method
                0x00000000401fc839                ec_GFp_nist_group_copy
                0x00000000401fc855                ec_GFp_nist_group_set_curve
                0x00000000401fca10                ec_GFp_nist_field_mul
                0x00000000401fcb04                ec_GFp_nist_field_sqr
                0x00000000401fcbf6                EC_GFp_nist_method
                0x00000000401fcbfc                ec_GFp_simple_is_at_infinity
                0x00000000401fcc07                ec_GFp_simple_group_init
                0x00000000401fcc3d                ec_GFp_simple_point_init
                0x00000000401fcc6a                ec_GFp_simple_group_finish
                0x00000000401fcc91                ec_GFp_simple_point_finish
                0x00000000401fccb2                ec_GFp_simple_group_clear_finish
                0x00000000401fccd9                ec_GFp_simple_point_clear_finish
                0x00000000401fcd01                ec_GFp_simple_group_copy
                0x00000000401fcd7a                ec_GFp_simple_point_copy
                0x00000000401fcde1                ec_GFp_simple_group_get_degree
                0x00000000401fcdf3                ec_GFp_simple_group_set_curve
                0x00000000401fd07b                ec_GFp_simple_group_get_curve
                0x00000000401fd1ad                ec_GFp_simple_set_Jprojective_coordinates_GFp
                0x00000000401fd3a8                ec_GFp_simple_get_Jprojective_coordinates_GFp
                0x00000000401fd500                ec_GFp_simple_field_sqr
                0x00000000401fd51b                ec_GFp_simple_field_mul
                0x00000000401fd539                ec_GFp_simple_group_check_discriminant
                0x00000000401fd77e                ec_GFp_simple_point_set_to_infinity
                0x00000000401fd7a1                ec_GFp_simple_point_set_affine_coordinates
                0x00000000401fd80d                ec_GFp_simple_cmp
                0x00000000401fdbb2                ec_GFp_simple_point_get_affine_coordinates
                0x00000000401fdfb3                ec_GFp_simple_invert
                0x00000000401fdfee                ec_GFp_simple_set_compressed_coordinates
                0x00000000401fe57c                ec_GFp_simple_make_affine
                0x00000000401fe727                ec_GFp_simple_point2oct
                0x00000000401feab8                ec_GFp_simple_is_on_curve
                0x00000000401fef28                ec_GFp_simple_oct2point
                0x00000000401ff34b                ec_GFp_simple_add
                0x00000000401ffa94                ec_GFp_simple_dbl
                0x00000000401fffed                ec_GFp_simple_points_make_affine
                0x000000004020063a                EC_GFp_simple_method
                0x0000000040200640                ERR_load_ECDSA_strings
                0x00000000402006a4                ECDSA_set_default_method
                0x00000000402006ac                ECDSA_get_default_method
                0x000000004020077a                ecdsa_check
                0x00000000402007e9                ECDSA_set_method
                0x0000000040200809                ECDSA_size
                0x00000000402008c2                ECDSA_get_ex_new_index
                0x00000000402008e4                ECDSA_set_ex_data
                0x0000000040200916                ECDSA_get_ex_data
                0x000000004020168e                ECDSA_OpenSSL
                0x0000000040201694                ECDSA_do_sign_ex
                0x00000000402016de                ECDSA_do_sign
                0x00000000402016f9                ECDSA_sign_ex
                0x0000000040201774                ECDSA_sign
                0x000000004020178c                ECDSA_sign_setup
                0x00000000402017d2                ECDSA_do_verify
                0x000000004020181b                ECDSA_verify
                0x0000000040201894                EVP_EncodeInit
                0x00000000402018a9                EVP_EncodeBlock
                0x00000000402019e0                EVP_EncodeUpdate
                0x0000000040201b1a                EVP_EncodeFinal
                0x0000000040201b5e                EVP_DecodeInit
                0x0000000040201b7a                EVP_DecodeBlock
                0x0000000040201cc3                EVP_DecodeUpdate
                0x000000004020200c                EVP_DecodeFinal
                0x0000000040202053                EVP_set_pw_prompt
                0x0000000040202082                EVP_get_pw_prompt
                0x0000000040202098                EVP_read_pw_string_min
                0x0000000040202158                EVP_read_pw_string
                0x0000000040202173                EVP_BytesToKey
                0x000000004020243b                EVP_PBE_alg_add_type
                0x00000000402024da                EVP_PBE_alg_add
                0x0000000040202532                EVP_PBE_find
                0x00000000402025ea                EVP_PBE_CipherInit
                0x00000000402027a7                EVP_PBE_cleanup
                0x00000000402027cc                EVP_PKCS82PKEY
                0x000000004020290d                EVP_PKEY2PKCS8_broken
                0x0000000040202a00                EVP_PKEY2PKCS8
                0x0000000040202a13                PKCS8_set_broken
                0x0000000040202a69                EVP_PKEY_get_attr_count
                0x0000000040202a7b                EVP_PKEY_get_attr_by_NID
                0x0000000040202a8d                EVP_PKEY_get_attr_by_OBJ
                0x0000000040202a9f                EVP_PKEY_get_attr
                0x0000000040202ab1                EVP_PKEY_delete_attr
                0x0000000040202ac3                EVP_PKEY_add1_attr
                0x0000000040202ade                EVP_PKEY_add1_attr_by_OBJ
                0x0000000040202af9                EVP_PKEY_add1_attr_by_NID
                0x0000000040202b14                EVP_PKEY_add1_attr_by_txt
                0x0000000040202b2f                HMAC_Init_ex
                0x0000000040202d0a                HMAC_Update
                0x0000000040202d1c                HMAC_Final
                0x0000000040202d8f                HMAC_CTX_init
                0x0000000040202db0                HMAC_Init
                0x0000000040202df7                HMAC_CTX_copy
                0x0000000040202e6d                HMAC_CTX_cleanup
                0x0000000040202ea0                HMAC
                0x0000000040202f46                HMAC_CTX_set_flags
                0x0000000040202f78                i2d_PrivateKey
                0x00000000402039e0                RAND_SSLeay
                0x0000000040203a09                d2i_NETSCAPE_CERT_SEQUENCE
                0x0000000040203a1c                i2d_NETSCAPE_CERT_SEQUENCE
                0x0000000040203a2f                NETSCAPE_CERT_SEQUENCE_new
                0x0000000040203a42                NETSCAPE_CERT_SEQUENCE_free
                0x0000000040203a55                OPENSSL_gmtime
                0x0000000040203a5b                OPENSSL_gmtime_adj
                0x0000000040203d01                PKCS12_PBE_add
                0x0000000040203d03                PKCS12_PBE_keyivgen
                0x0000000040203f00                PKCS12_key_gen_uni
                0x00000000402043d1                PKCS12_key_gen_asc
                0x000000004020449e                PKCS8_decrypt
                0x00000000402044c3                OPENSSL_asc2uni
                0x0000000040204556                OPENSSL_uni2asc
                0x00000000402045cc                i2d_PKCS12_bio
                0x00000000402045e5                d2i_PKCS12_bio
                0x00000000402045fe                PKCS12_x5092certbag
                0x000000004020461b                PKCS12_x509crl2certbag
                0x0000000040204638                PKCS12_certbag2x509
                0x0000000040204682                PKCS12_certbag2x509crl
                0x00000000402046cc                PKCS5_PBE_add
                0x00000000402046ce                PKCS5_PBE_keyivgen
                0x0000000040204997                PKCS5_PBKDF2_HMAC
                0x0000000040204c6a                PKCS5_PBKDF2_HMAC_SHA1
                0x0000000040204cb9                PKCS5_v2_PBE_keyivgen
                0x00000000402050ba                d2i_PBEPARAM
                0x00000000402050cd                i2d_PBEPARAM
                0x00000000402050e0                PBEPARAM_new
                0x00000000402050f3                PBEPARAM_free
                0x0000000040205106                PKCS5_pbe_set0_algor
                0x00000000402052af                PKCS5_pbe_set
                0x0000000040205328                d2i_PBE2PARAM
                0x000000004020533b                i2d_PBE2PARAM
                0x000000004020534e                PBE2PARAM_new
                0x0000000040205361                PBE2PARAM_free
                0x0000000040205374                d2i_PBKDF2PARAM
                0x0000000040205387                i2d_PBKDF2PARAM
                0x000000004020539a                PBKDF2PARAM_new
                0x00000000402053ad                PBKDF2PARAM_free
                0x00000000402053c0                PKCS5_pbe2_set_iv
                0x000000004020589b                PKCS5_pbe2_set
                0x00000000402058ea                d2i_PKCS8_PRIV_KEY_INFO
                0x00000000402058fd                i2d_PKCS8_PRIV_KEY_INFO
                0x0000000040205910                PKCS8_PRIV_KEY_INFO_new
                0x0000000040205923                PKCS8_PRIV_KEY_INFO_free
                0x0000000040205936                PKCS8_pkey_set0
                0x00000000402059db                PKCS8_pkey_get0
                0x0000000040205a61                EVP_SignFinal
                0x0000000040205c09                EVP_VerifyFinal
                0x0000000040205d9b                policy_cache_free
                0x0000000040205dcf                policy_cache_set
                0x000000004020613d                policy_cache_find_data
                0x0000000040206173                policy_data_free
                0x00000000402061ab                policy_data_new
                0x00000000402062a5                policy_cache_set_mapping
                0x00000000402064d6                X509_policy_tree_free
                0x0000000040206576                X509_policy_check
                0x0000000040206eed                d2i_PKCS8PrivateKey_bio
                0x0000000040206ff0                PEM_read_bio_PKCS8
                0x0000000040207014                PEM_write_bio_PKCS8
                0x0000000040207044                PEM_read_bio_PKCS8_PRIV_KEY_INFO
                0x0000000040207068                PEM_write_bio_PKCS8_PRIV_KEY_INFO
                0x000000004020726e                PEM_write_bio_PKCS8PrivateKey_nid
                0x0000000040207294                PEM_write_bio_PKCS8PrivateKey
                0x00000000402072ba                i2d_PKCS8PrivateKey_bio
                0x00000000402072e0                i2d_PKCS8PrivateKey_nid_bio
                0x0000000040207306                PKCS7_add_attrib_smimecap
                0x0000000040207370                PKCS7_get_smimecap
                0x00000000402073c0                PKCS7_simple_smimecap
                0x00000000402074ee                PKCS7_add_attrib_content_type
                0x0000000040207540                PKCS7_add0_attrib_signing_time
                0x0000000040207598                PKCS7_add1_attrib_digest
                0x0000000040208e66                RSA_PKCS1_SSLeay
                0x0000000040208e6c                RSA_padding_add_none
                0x0000000040208edb                RSA_padding_check_none
                0x0000000040208f4a                PKCS1_MGF1
                0x00000000402090f8                RSA_padding_check_PKCS1_OAEP
                0x00000000402093a2                RSA_padding_add_PKCS1_OAEP
                0x00000000402095a7                RSA_padding_add_PKCS1_type_1
                0x000000004020962a                RSA_padding_check_PKCS1_type_1
                0x000000004020977c                RSA_padding_add_PKCS1_type_2
                0x000000004020983d                RSA_padding_check_PKCS1_type_2
                0x0000000040209955                RSA_verify_PKCS1_PSS
                0x0000000040209cb6                RSA_padding_add_PKCS1_PSS
                0x000000004020a055                RSA_padding_add_SSLv23
                0x000000004020a128                RSA_padding_check_SSLv23
                0x000000004020a2a0                RSA_padding_add_X931
                0x000000004020a33d                RSA_padding_check_X931
                0x000000004020a45c                RSA_X931_hash_id
                0x000000004020a4a1                ASN1_bn_print
                0x000000004020a6c9                X509_ocspid_print
                0x000000004020a83c                X509_signature_print
                0x000000004020a967                ASN1_STRING_print
                0x000000004020aa25                ASN1_GENERALIZEDTIME_print
                0x000000004020ac55                ASN1_UTCTIME_print
                0x000000004020adbc                ASN1_TIME_print
                0x000000004020adf4                X509_print_ex
                0x000000004020b347                X509_print
                0x000000004020b35f                X509_NAME_print
                0x000000004020b452                X509_CERT_AUX_print
                0x000000004020b985                UI_free
                0x000000004020b9b8                UI_add_input_string
                0x000000004020b9dc                UI_dup_input_string
                0x000000004020ba61                UI_add_verify_string
                0x000000004020ba87                UI_dup_verify_string
                0x000000004020bb0e                UI_add_input_boolean
                0x000000004020bb2a                UI_dup_input_boolean
                0x000000004020bcb2                UI_add_info_string
                0x000000004020bcdc                UI_dup_info_string
                0x000000004020bd4e                UI_add_error_string
                0x000000004020bd78                UI_dup_error_string
                0x000000004020bdea                UI_construct_prompt
                0x000000004020bf0e                UI_add_user_data
                0x000000004020bf17                UI_get0_user_data
                0x000000004020bf1c                UI_process
                0x000000004020c034                UI_ctrl
                0x000000004020c0c0                UI_get_ex_new_index
                0x000000004020c0e2                UI_set_ex_data
                0x000000004020c0f4                UI_get_ex_data
                0x000000004020c106                UI_set_default_method
                0x000000004020c10e                UI_get_default_method
                0x000000004020c13c                UI_new_method
                0x000000004020c1cb                UI_new
                0x000000004020c1de                UI_get_method
                0x000000004020c1e2                UI_set_method
                0x000000004020c1e9                UI_create_method
                0x000000004020c235                UI_destroy_method
                0x000000004020c252                UI_method_set_opener
                0x000000004020c267                UI_method_set_writer
                0x000000004020c27c                UI_method_set_flusher
                0x000000004020c291                UI_method_set_reader
                0x000000004020c2a6                UI_method_set_closer
                0x000000004020c2bb                UI_method_set_prompt_constructor
                0x000000004020c2d0                UI_method_get_opener
                0x000000004020c2e0                UI_method_get_writer
                0x000000004020c2f0                UI_method_get_flusher
                0x000000004020c300                UI_method_get_reader
                0x000000004020c310                UI_method_get_closer
                0x000000004020c320                UI_method_get_prompt_constructor
                0x000000004020c330                UI_get_string_type
                0x000000004020c33e                UI_get_input_flags
                0x000000004020c34d                UI_get0_output_string
                0x000000004020c35d                UI_get0_action_string
                0x000000004020c37f                UI_get0_result_string
                0x000000004020c39f                UI_get0_result
                0x000000004020c421                UI_get0_test_string
                0x000000004020c43c                UI_get_result_minsize
                0x000000004020c45b                UI_get_result_maxsize
                0x000000004020c47a                UI_set_result
                0x000000004020c8d6                UI_OpenSSL
                0x000000004020c8dc                d2i_AUTHORITY_KEYID
                0x000000004020c8ef                i2d_AUTHORITY_KEYID
                0x000000004020c902                AUTHORITY_KEYID_new
                0x000000004020c915                AUTHORITY_KEYID_free
                0x000000004020cbb1                POLICYINFO_free
                0x000000004020cbc4                d2i_CERTIFICATEPOLICIES
                0x000000004020cbd7                i2d_CERTIFICATEPOLICIES
                0x000000004020cbea                CERTIFICATEPOLICIES_new
                0x000000004020cbfd                CERTIFICATEPOLICIES_free
                0x000000004020cc10                d2i_POLICYINFO
                0x000000004020cc23                i2d_POLICYINFO
                0x000000004020cc36                POLICYINFO_new
                0x000000004020cc49                d2i_POLICYQUALINFO
                0x000000004020cc5c                i2d_POLICYQUALINFO
                0x000000004020cc6f                POLICYQUALINFO_new
                0x000000004020cc82                POLICYQUALINFO_free
                0x000000004020cc95                d2i_USERNOTICE
                0x000000004020cca8                i2d_USERNOTICE
                0x000000004020ccbb                USERNOTICE_new
                0x000000004020ccce                USERNOTICE_free
                0x000000004020cce1                d2i_NOTICEREF
                0x000000004020ccf4                i2d_NOTICEREF
                0x000000004020cd07                NOTICEREF_new
                0x000000004020d68d                NOTICEREF_free
                0x000000004020d6a0                X509_POLICY_NODE_print
                0x000000004020dc6c                DIST_POINT_free
                0x000000004020dc7f                d2i_DIST_POINT_NAME
                0x000000004020dc92                i2d_DIST_POINT_NAME
                0x000000004020dca5                DIST_POINT_NAME_new
                0x000000004020de9f                DIST_POINT_NAME_free
                0x000000004020deb2                d2i_DIST_POINT
                0x000000004020dec5                i2d_DIST_POINT
                0x000000004020ded8                DIST_POINT_new
                0x000000004020e19d                d2i_CRL_DIST_POINTS
                0x000000004020e1b0                i2d_CRL_DIST_POINTS
                0x000000004020e1c3                CRL_DIST_POINTS_new
                0x000000004020e1d6                CRL_DIST_POINTS_free
                0x000000004020e1e9                d2i_ISSUING_DIST_POINT
                0x000000004020e1fc                i2d_ISSUING_DIST_POINT
                0x000000004020e20f                ISSUING_DIST_POINT_new
                0x000000004020e222                ISSUING_DIST_POINT_free
                0x000000004020e432                DIST_POINT_set_dpname
                0x000000004020e51f                d2i_GENERAL_NAME
                0x000000004020e532                i2d_GENERAL_NAME
                0x000000004020e545                d2i_OTHERNAME
                0x000000004020e558                i2d_OTHERNAME
                0x000000004020e56b                OTHERNAME_new
                0x000000004020e57e                OTHERNAME_free
                0x000000004020e591                d2i_EDIPARTYNAME
                0x000000004020e5a4                i2d_EDIPARTYNAME
                0x000000004020e5b7                EDIPARTYNAME_new
                0x000000004020e5ca                EDIPARTYNAME_free
                0x000000004020e5dd                GENERAL_NAME_new
                0x000000004020e5f0                GENERAL_NAME_free
                0x000000004020e603                d2i_GENERAL_NAMES
                0x000000004020e616                i2d_GENERAL_NAMES
                0x000000004020e629                GENERAL_NAMES_new
                0x000000004020e63c                GENERAL_NAMES_free
                0x000000004020e64f                GENERAL_NAME_dup
                0x000000004020e66a                OTHERNAME_cmp
                0x000000004020e6ab                GENERAL_NAME_cmp
                0x000000004020e738                GENERAL_NAME_set0_value
                0x000000004020e76b                GENERAL_NAME_get0_value
                0x000000004020e7a6                GENERAL_NAME_set0_othername
                0x000000004020e7e0                GENERAL_NAME_get0_otherName
                0x000000004020edcc                GENERAL_SUBTREE_new
                0x000000004020eddf                GENERAL_SUBTREE_free
                0x000000004020edf2                NAME_CONSTRAINTS_new
                0x000000004020ee05                NAME_CONSTRAINTS_free
                0x000000004020efc4                NAME_CONSTRAINTS_check
                0x000000004020f0e2                POLICY_CONSTRAINTS_new
                0x000000004020f0f5                POLICY_CONSTRAINTS_free
                0x000000004020f2e2                POLICY_MAPPING_free
                0x000000004020f2f5                POLICY_MAPPING_new
                0x000000004020f594                X509V3_EXT_val_prn
                0x000000004020f6ad                X509V3_EXT_print
                0x000000004020f868                X509V3_extensions_print
                0x000000004020fd08                X509_PURPOSE_get_count
                0x000000004020fd2b                X509_PURPOSE_get0
                0x000000004020fd66                X509_PURPOSE_get_by_sname
                0x000000004020fda9                X509_PURPOSE_get_by_id
                0x000000004020fde8                X509_PURPOSE_set
                0x000000004020fe34                X509_PURPOSE_add
                0x000000004020ffe9                X509_PURPOSE_cleanup
                0x000000004021002d                X509_PURPOSE_get_id
                0x0000000040210030                X509_PURPOSE_get0_name
                0x0000000040210035                X509_PURPOSE_get0_sname
                0x000000004021003a                X509_PURPOSE_get_trust
                0x000000004021003e                X509_supported_extension
                0x00000000402105a9                X509_check_purpose
                0x000000004021062a                X509_check_ca
                0x0000000040210678                X509_check_akid
                0x000000004021074e                X509_check_issued
                0x00000000402108ba                X509V3_conf_free
                0x00000000402109a0                X509V3_add_value
                0x0000000040210ac7                X509V3_add_value_uchar
                0x0000000040210ad5                X509V3_add_value_bool
                0x0000000040210af8                X509V3_add_value_bool_nf
                0x0000000040210b15                i2s_ASN1_ENUMERATED
                0x0000000040210b83                i2s_ASN1_INTEGER
                0x0000000040210bf1                s2i_ASN1_INTEGER
                0x0000000040210d58                X509V3_add_value_int
                0x0000000040210da3                X509V3_get_value_bool
                0x0000000040210f02                X509V3_get_value_int
                0x0000000040210f64                X509V3_parse_list
                0x000000004021118a                hex_to_string
                0x0000000040211246                string_to_hex
                0x00000000402113f6                name_cmp
                0x000000004021143f                X509_email_free
                0x00000000402115ad                X509_get1_email
                0x00000000402115fa                X509_REQ_get1_email
                0x0000000040211658                X509_get1_ocsp
                0x00000000402116ef                a2i_ipadd
                0x0000000040211825                a2i_IPADDRESS
                0x0000000040211880                a2i_IPADDRESS_NC
                0x000000004021194e                X509V3_NAME_from_section
                0x0000000040211a36                X509at_get_attr_count
                0x0000000040211a44                X509at_get_attr_by_OBJ
                0x0000000040211ab1                X509at_get_attr_by_NID
                0x0000000040211ae3                X509at_get_attr
                0x0000000040211b23                X509at_delete_attr
                0x0000000040211b63                X509at_add1_attr
                0x0000000040211c47                X509_ATTRIBUTE_set1_object
                0x0000000040211c84                X509_ATTRIBUTE_set1_data
                0x0000000040211dff                X509_ATTRIBUTE_create_by_OBJ
                0x0000000040211ef4                X509at_add1_attr_by_OBJ
                0x0000000040211f36                X509_ATTRIBUTE_create_by_NID
                0x0000000040211faf                X509at_add1_attr_by_NID
                0x0000000040211ff1                X509_ATTRIBUTE_create_by_txt
                0x0000000040212091                X509at_add1_attr_by_txt
                0x00000000402120d3                X509_ATTRIBUTE_count
                0x00000000402120f9                X509_ATTRIBUTE_get0_object
                0x0000000040212108                X509_ATTRIBUTE_get0_type
                0x000000004021214c                X509_ATTRIBUTE_get0_data
                0x00000000402121a5                X509at_get0_data_by_OBJ
                0x000000004021222f                X509_CRL_get_ext_count
                0x0000000040212244                X509_CRL_get_ext_by_NID
                0x0000000040212259                X509_CRL_get_ext_by_OBJ
                0x000000004021226e                X509_CRL_get_ext_by_critical
                0x0000000040212283                X509_CRL_get_ext
                0x0000000040212298                X509_CRL_delete_ext
                0x00000000402122ad                X509_CRL_get_ext_d2i
                0x00000000402122c2                X509_CRL_add1_ext_i2d
                0x00000000402122d7                X509_CRL_add_ext
                0x00000000402122f5                X509_get_ext_count
                0x000000004021230a                X509_get_ext_by_NID
                0x000000004021231f                X509_get_ext_by_OBJ
                0x0000000040212334                X509_get_ext_by_critical
                0x0000000040212349                X509_get_ext
                0x000000004021235e                X509_delete_ext
                0x0000000040212373                X509_add_ext
                0x0000000040212391                X509_get_ext_d2i
                0x00000000402123a6                X509_add1_ext_i2d
                0x00000000402123bb                X509_REVOKED_get_ext_count
                0x00000000402123cd                X509_REVOKED_get_ext_by_NID
                0x00000000402123df                X509_REVOKED_get_ext_by_OBJ
                0x00000000402123f1                X509_REVOKED_get_ext_by_critical
                0x0000000040212403                X509_REVOKED_get_ext
                0x0000000040212415                X509_REVOKED_delete_ext
                0x0000000040212427                X509_REVOKED_add_ext
                0x0000000040212442                X509_REVOKED_get_ext_d2i
                0x0000000040212454                X509_REVOKED_add1_ext_i2d
                0x00000000402125d4                X509_LOOKUP_new
                0x0000000040212650                X509_LOOKUP_free
                0x0000000040212678                X509_LOOKUP_init
                0x00000000402126a3                X509_LOOKUP_shutdown
                0x00000000402126ce                X509_LOOKUP_ctrl
                0x00000000402126fa                X509_LOOKUP_by_subject
                0x0000000040212732                X509_LOOKUP_by_issuer_serial
                0x000000004021275e                X509_LOOKUP_by_fingerprint
                0x000000004021278a                X509_LOOKUP_by_alias
                0x00000000402127b6                X509_STORE_new
                0x00000000402128a8                X509_STORE_free
                0x000000004021293e                X509_STORE_add_lookup
                0x00000000402129c0                X509_OBJECT_up_ref_count
                0x0000000040212a1d                X509_OBJECT_free_contents
                0x0000000040212a48                X509_OBJECT_idx_by_subject
                0x0000000040212a5b                X509_OBJECT_retrieve_by_subject
                0x0000000040212a7c                X509_STORE_get_by_subject
                0x0000000040212b7f                X509_STORE_get1_certs
                0x0000000040212d3e                X509_STORE_get1_crls
                0x0000000040212ef8                X509_OBJECT_retrieve_match
                0x0000000040212fd9                X509_STORE_add_cert
                0x00000000402130dc                X509_STORE_add_crl
                0x00000000402131df                X509_STORE_CTX_get1_issuer
                0x0000000040213380                X509_STORE_set_flags
                0x0000000040213392                X509_STORE_set_depth
                0x00000000402133a9                X509_STORE_set_purpose
                0x00000000402133bb                X509_STORE_set_trust
                0x00000000402133cd                X509_STORE_set1_param
                0x00000000402133df                X509_STORE_set_verify_cb
                0x00000000402133e4                X509_to_X509_REQ
                0x00000000402134dd                X509_REQ_get_pubkey
                0x000000004021350a                X509_REQ_check_private_key
                0x000000004021363a                X509_REQ_extension_nid
                0x000000004021367b                X509_REQ_get_extension_nids
                0x0000000040213683                X509_REQ_set_extension_nids
                0x000000004021368b                X509_REQ_add_extensions_nid
                0x0000000040213785                X509_REQ_add_extensions
                0x0000000040213798                X509_REQ_get_attr_count
                0x00000000402137ad                X509_REQ_get_attr_by_NID
                0x00000000402137c2                X509_REQ_get_attr_by_OBJ
                0x00000000402137d7                X509_REQ_get_attr
                0x00000000402137ec                X509_REQ_get_extensions
                0x00000000402138df                X509_REQ_delete_attr
                0x00000000402138f4                X509_REQ_add1_attr
                0x0000000040213912                X509_REQ_add1_attr_by_OBJ
                0x0000000040213930                X509_REQ_add1_attr_by_NID
                0x000000004021394e                X509_REQ_add1_attr_by_txt
                0x0000000040213ac1                X509_TRUST_set_default
                0x0000000040213ad0                X509_TRUST_get_count
                0x0000000040213af3                X509_TRUST_get0
                0x0000000040213b2c                X509_TRUST_get_by_id
                0x0000000040213b6e                X509_check_trust
                0x0000000040213bb9                X509_TRUST_set
                0x0000000040213c05                X509_TRUST_add
                0x0000000040213dd7                X509_TRUST_cleanup
                0x0000000040213e1b                X509_TRUST_get_flags
                0x0000000040213e1f                X509_TRUST_get0_name
                0x0000000040213e24                X509_TRUST_get_trust
                0x0000000040213e27                X509v3_get_ext_count
                0x0000000040213e40                X509v3_get_ext_by_OBJ
                0x0000000040213ead                X509v3_get_ext_by_NID
                0x0000000040213edf                X509v3_get_ext_by_critical
                0x0000000040213f54                X509v3_get_ext
                0x0000000040213f94                X509v3_delete_ext
                0x0000000040213fd4                X509v3_add_ext
                0x00000000402140df                X509_EXTENSION_set_object
                0x000000004021411c                X509_EXTENSION_set_critical
                0x0000000040214137                X509_EXTENSION_set_data
                0x0000000040214165                X509_EXTENSION_create_by_OBJ
                0x000000004021424e                X509_EXTENSION_create_by_NID
                0x00000000402142c5                X509_EXTENSION_get_object
                0x00000000402142d4                X509_EXTENSION_get_data
                0x00000000402142e4                X509_EXTENSION_get_critical
                0x00000000402142fa                X509_NAME_entry_count
                0x0000000040214316                X509_NAME_get_index_by_OBJ
                0x000000004021438a                X509_NAME_get_index_by_NID
                0x00000000402143bc                X509_NAME_get_entry
                0x00000000402143ff                X509_NAME_get_text_by_OBJ
                0x0000000040214466                X509_NAME_get_text_by_NID
                0x000000004021449c                X509_NAME_delete_entry
                0x000000004021456e                X509_NAME_add_entry
                0x00000000402146ec                X509_NAME_ENTRY_set_object
                0x000000004021474b                X509_NAME_ENTRY_set_data
                0x000000004021481f                X509_NAME_ENTRY_create_by_OBJ
                0x00000000402148ee                X509_NAME_add_entry_by_OBJ
                0x0000000040214932                X509_NAME_ENTRY_create_by_txt
                0x00000000402149d2                X509_NAME_add_entry_by_txt
                0x0000000040214a16                X509_NAME_ENTRY_create_by_NID
                0x0000000040214a8a                X509_NAME_add_entry_by_NID
                0x0000000040214ace                X509_NAME_ENTRY_get_object
                0x0000000040214add                X509_NAME_ENTRY_get_data
                0x0000000040214aed                X509_REQ_set_version
                0x0000000040214b0d                X509_REQ_set_subject_name
                0x0000000040214b3a                X509_REQ_set_pubkey
                0x0000000040214b67                d2i_X509_VAL
                0x0000000040214b7a                i2d_X509_VAL
                0x0000000040214b8d                X509_VAL_new
                0x0000000040214ba0                X509_VAL_free
                0x0000000040214bb3                CRYPTO_cbc128_encrypt
                0x0000000040214d01                CRYPTO_cbc128_decrypt
                0x0000000040215021                CRYPTO_cfb128_encrypt
                0x00000000402152e5                CRYPTO_cfb128_1_encrypt
                0x00000000402153be                CRYPTO_cfb128_8_encrypt
                0x0000000040215427                CRYPTO_ofb128_encrypt
                0x0000000040215582                i2d_ASN1_BOOLEAN
                0x00000000402155f6                d2i_ASN1_BOOLEAN
                0x00000000402158dc                ASN1_mbstring_ncopy
                0x0000000040215df1                ASN1_mbstring_copy
                0x0000000040215e07                ASN1_PRINTABLE_type
                0x0000000040215ea9                ASN1_UNIVERSALSTRING_to_string
                0x0000000040215fa8                ASN1_STRING_set_default_mask
                0x0000000040215fb0                ASN1_STRING_get_default_mask
                0x0000000040215fb8                ASN1_STRING_set_default_mask_asc
                0x0000000040216077                ASN1_STRING_TABLE_get
                0x00000000402160db                ASN1_STRING_set_by_NID
                0x0000000040216189                ASN1_STRING_TABLE_add
                0x000000004021629f                ASN1_STRING_TABLE_cleanup
                0x00000000402162ca                ASN1_seq_unpack
                0x000000004021632b                ASN1_seq_pack
                0x000000004021641b                ASN1_unpack_string
                0x000000004021646b                ASN1_pack_string
                0x0000000040216587                ASN1_item_pack
                0x0000000040216697                ASN1_item_unpack
                0x00000000402166ea                BN_mod_exp2_mont
                0x0000000040216e3b                BN_kronecker
                0x0000000040217154                BN_get0_nist_prime_192
                0x000000004021715a                BN_get0_nist_prime_224
                0x0000000040217160                BN_get0_nist_prime_256
                0x0000000040217166                BN_get0_nist_prime_384
                0x000000004021716c                BN_get0_nist_prime_521
                0x0000000040217172                BN_nist_mod_192
                0x00000000402173e9                BN_nist_mod_224
                0x0000000040217733                BN_nist_mod_256
                0x0000000040217c01                BN_nist_mod_384
                0x000000004021821d                BN_nist_mod_521
                0x00000000402183ef                BN_mod_sqrt
                0x0000000040218db2                CONF_modules_load
                0x0000000040219252                CONF_modules_finish
                0x00000000402192bf                CONF_modules_unload
                0x0000000040219361                CONF_module_add
                0x0000000040219386                CONF_modules_free
                0x000000004021939e                CONF_imodule_get_name
                0x00000000402193a3                CONF_imodule_get_value
                0x00000000402193a8                CONF_imodule_get_usr_data
                0x00000000402193ad                CONF_imodule_set_usr_data
                0x00000000402193b2                CONF_imodule_get_module
                0x00000000402193b6                CONF_imodule_get_flags
                0x00000000402193bb                CONF_imodule_set_flags
                0x00000000402193c0                CONF_module_get_usr_data
                0x00000000402193c5                CONF_module_set_usr_data
                0x00000000402193ca                CONF_get1_default_config_file
                0x0000000040219446                CONF_modules_load_file
                0x0000000040219502                CONF_parse_list
                0x000000004021960d                DSO_set_default_method
                0x0000000040219615                DSO_get_default_method
                0x000000004021961d                DSO_get_method
                0x0000000040219621                DSO_set_method
                0x0000000040219628                DSO_new_method
                0x0000000040219727                DSO_new
                0x000000004021973a                DSO_free
                0x0000000040219847                DSO_flags
                0x0000000040219856                DSO_up_ref
                0x00000000402198ad                DSO_bind_var
                0x0000000040219940                DSO_bind_func
                0x00000000402199d3                DSO_ctrl
                0x0000000040219a6d                DSO_set_name_converter
                0x0000000040219ab7                DSO_get_filename
                0x0000000040219af0                DSO_set_filename
                0x0000000040219bd4                DSO_load
                0x0000000040219d73                DSO_merge
                0x0000000040219ddb                DSO_convert_filename
                0x0000000040219edd                DSO_get_loaded_filename
                0x0000000040219f16                DSO_pathbyaddr
                0x0000000040219f73                DSO_global_lookup
                0x0000000040219fbe                DSO_METHOD_openssl
                0x0000000040219fcc                ec_GF2m_simple_is_at_infinity
                0x0000000040219fd7                ec_GF2m_simple_points_make_affine
                0x000000004021a02d                ec_GF2m_simple_group_init
                0x000000004021a059                ec_GF2m_simple_point_init
                0x000000004021a07f                ec_GF2m_simple_group_finish
                0x000000004021a0a6                ec_GF2m_simple_point_finish
                0x000000004021a0c7                ec_GF2m_simple_group_clear_finish
                0x000000004021a12a                ec_GF2m_simple_point_clear_finish
                0x000000004021a152                ec_GF2m_simple_group_get_curve
                0x000000004021a1c3                ec_GF2m_simple_point_copy
                0x000000004021a22a                ec_GF2m_simple_group_copy
                0x000000004021a3c6                ec_GF2m_simple_group_set_curve
                0x000000004021a55c                ec_GF2m_simple_group_get_degree
                0x000000004021a571                ec_GF2m_simple_group_check_discriminant
                0x000000004021a63d                ec_GF2m_simple_point_set_to_infinity
                0x000000004021a660                ec_GF2m_simple_point_set_affine_coordinates
                0x000000004021a727                ec_GF2m_simple_point_get_affine_coordinates
                0x000000004021a805                ec_GF2m_simple_is_on_curve
                0x000000004021a9bb                ec_GF2m_simple_set_compressed_coordinates
                0x000000004021ad0b                ec_GF2m_simple_cmp
                0x000000004021aebe                ec_GF2m_simple_make_affine
                0x000000004021afdf                ec_GF2m_simple_point2oct
                0x000000004021b38e                ec_GF2m_simple_oct2point
                0x000000004021b800                ec_GF2m_simple_add
                0x000000004021bd94                ec_GF2m_simple_dbl
                0x000000004021bda8                ec_GF2m_simple_invert
                0x000000004021bdf6                ec_GF2m_simple_field_mul
                0x000000004021be17                ec_GF2m_simple_field_sqr
                0x000000004021be35                ec_GF2m_simple_field_div
                0x000000004021be53                EC_GF2m_simple_method
                0x000000004021be59                d2i_ECDSA_SIG
                0x000000004021be6c                i2d_ECDSA_SIG
                0x000000004021be7f                ECDSA_SIG_new
                0x000000004021be92                ECDSA_SIG_free
                0x000000004021bebe                ERR_print_errors_cb
                0x000000004021bf8b                ERR_print_errors
                0x000000004021bfa1                PKCS12_item_pack_safebag
                0x000000004021c07f                PKCS12_MAKE_KEYBAG
                0x000000004021c0d6                PKCS12_MAKE_SHKEYBAG
                0x000000004021c1b4                PKCS12_pack_p7data
                0x000000004021c280                PKCS12_unpack_p7data
                0x000000004021c2c8                PKCS12_pack_p7encdata
                0x000000004021c45c                PKCS12_unpack_p7encdata
                0x000000004021c4ad                PKCS12_decrypt_skey
                0x000000004021c4bf                PKCS12_pack_authsafes
                0x000000004021c4e9                PKCS12_unpack_authsafes
                0x000000004021c539                d2i_PKCS12
                0x000000004021c54c                i2d_PKCS12
                0x000000004021c55f                PKCS12_new
                0x000000004021c572                PKCS12_free
                0x000000004021c585                d2i_PKCS12_MAC_DATA
                0x000000004021c598                i2d_PKCS12_MAC_DATA
                0x000000004021c5ab                PKCS12_MAC_DATA_new
                0x000000004021c5be                PKCS12_MAC_DATA_free
                0x000000004021c5d1                d2i_PKCS12_BAGS
                0x000000004021c5e4                i2d_PKCS12_BAGS
                0x000000004021c5f7                PKCS12_BAGS_new
                0x000000004021c60a                PKCS12_BAGS_free
                0x000000004021c61d                d2i_PKCS12_SAFEBAG
                0x000000004021c630                i2d_PKCS12_SAFEBAG
                0x000000004021c643                PKCS12_SAFEBAG_new
                0x000000004021c656                PKCS12_SAFEBAG_free
                0x000000004021c669                PKCS12_pbe_crypt
                0x000000004021c7ce                PKCS12_item_decrypt_d2i
                0x000000004021c896                PKCS12_item_i2d_encrypt
                0x000000004021c9bf                PKCS8_encrypt
                0x000000004021cae4                X509_policy_tree_level_count
                0x000000004021caf3                X509_policy_tree_get0_level
                0x000000004021cb1d                X509_policy_tree_get0_policies
                0x000000004021cb2d                X509_policy_tree_get0_user_policies
                0x000000004021cb48                X509_policy_level_node_count
                0x000000004021cb74                X509_policy_level_get0_node
                0x000000004021cba2                X509_policy_node_get0_policy
                0x000000004021cbb5                X509_policy_node_get0_qualifiers
                0x000000004021cbc8                X509_policy_node_get0_parent
                0x000000004021cbfa                policy_node_cmp_new
                0x000000004021cc0d                tree_find_sk
                0x000000004021cc4a                level_find_node
                0x000000004021ccae                level_add_node
                0x000000004021cd94                policy_node_free
                0x000000004021cda2                policy_node_match
                0x000000004021cf89                i2v_GENERAL_NAME
                0x000000004021d1b7                i2v_GENERAL_NAMES
                0x000000004021d213                GENERAL_NAME_print
                0x000000004021d3a4                a2i_GENERAL_NAME
                0x000000004021d743                v2i_GENERAL_NAME_ex
                0x000000004021d89d                v2i_GENERAL_NAME
                0x000000004021dbe4                v2i_GENERAL_NAMES
                0x000000004021dcc2                d2i_BASIC_CONSTRAINTS
                0x000000004021dcd5                i2d_BASIC_CONSTRAINTS
                0x000000004021dce8                BASIC_CONSTRAINTS_new
                0x000000004021dcfb                BASIC_CONSTRAINTS_free
                0x000000004021e44a                X509V3_EXT_nconf
                0x000000004021e50e                X509V3_EXT_nconf_nid
                0x000000004021e58a                X509V3_EXT_i2d
                0x000000004021e5d9                X509V3_EXT_add_nconf_sk
                0x000000004021e67a                X509V3_EXT_add_nconf
                0x000000004021e69b                X509V3_EXT_CRL_add_nconf
                0x000000004021e6bc                X509V3_EXT_REQ_add_nconf
                0x000000004021e71b                X509V3_get_string
                0x000000004021e769                X509V3_get_section
                0x000000004021e7b8                X509V3_string_free
                0x000000004021e7da                X509V3_section_free
                0x000000004021e7fc                X509V3_set_nconf
                0x000000004021e809                X509V3_set_ctx
                0x000000004021e81d                X509V3_EXT_conf
                0x000000004021e857                X509V3_EXT_conf_nid
                0x000000004021e88f                X509V3_set_conf_lhash
                0x000000004021e89c                X509V3_EXT_add_conf
                0x000000004021e8d6                X509V3_EXT_CRL_add_conf
                0x000000004021e910                X509V3_EXT_REQ_add_conf
                0x000000004021ea83                ACCESS_DESCRIPTION_free
                0x000000004021ea96                d2i_ACCESS_DESCRIPTION
                0x000000004021eaa9                i2d_ACCESS_DESCRIPTION
                0x000000004021eabc                ACCESS_DESCRIPTION_new
                0x000000004021ece7                d2i_AUTHORITY_INFO_ACCESS
                0x000000004021ecfa                i2d_AUTHORITY_INFO_ACCESS
                0x000000004021ed0d                AUTHORITY_INFO_ACCESS_new
                0x000000004021ed20                AUTHORITY_INFO_ACCESS_free
                0x000000004021ed33                i2a_ACCESS_DESCRIPTION
                0x000000004021ed74                X509V3_EXT_add
                0x000000004021edfd                X509V3_EXT_get_nid
                0x000000004021ee7c                X509V3_EXT_get
                0x000000004021ee9d                X509V3_EXT_add_list
                0x000000004021eec9                X509V3_EXT_add_alias
                0x000000004021efc3                X509V3_EXT_cleanup
                0x000000004021efe8                X509V3_add_standard_extensions
                0x000000004021efee                X509V3_EXT_d2i
                0x000000004021f047                X509V3_get_d2i
                0x000000004021f16c                X509V3_add1_i2d
                0x0000000040220117                d2i_PROXY_POLICY
                0x000000004022012a                i2d_PROXY_POLICY
                0x000000004022013d                PROXY_POLICY_new
                0x0000000040220150                PROXY_POLICY_free
                0x0000000040220163                d2i_PROXY_CERT_INFO_EXTENSION
                0x0000000040220176                i2d_PROXY_CERT_INFO_EXTENSION
                0x0000000040220189                PROXY_CERT_INFO_EXTENSION_new
                0x000000004022019c                PROXY_CERT_INFO_EXTENSION_free
                0x0000000040220243                d2i_PKEY_USAGE_PERIOD
                0x0000000040220256                i2d_PKEY_USAGE_PERIOD
                0x0000000040220269                PKEY_USAGE_PERIOD_new
                0x000000004022027c                PKEY_USAGE_PERIOD_free
                0x000000004022028f                i2s_ASN1_OCTET_STRING
                0x00000000402202a7                s2i_ASN1_OCTET_STRING
                0x000000004022053f                d2i_SXNETID
                0x0000000040220552                i2d_SXNETID
                0x0000000040220565                SXNETID_new
                0x0000000040220578                SXNETID_free
                0x000000004022058b                d2i_SXNET
                0x000000004022059e                i2d_SXNET
                0x00000000402205b1                SXNET_new
                0x00000000402205c4                SXNET_free
                0x00000000402205d7                SXNET_get_id_INTEGER
                0x0000000040220632                SXNET_add_id_INTEGER
                0x00000000402207d3                SXNET_add_id_asc
                0x000000004022088b                SXNET_add_id_ulong
                0x0000000040220908                SXNET_get_id_asc
                0x0000000040220969                SXNET_get_id_ulong
                0x00000000402209e0                X509_get_default_private_dir
                0x00000000402209e6                X509_get_default_cert_area
                0x00000000402209ec                X509_get_default_cert_dir
                0x00000000402209f2                X509_get_default_cert_file
                0x00000000402209f8                X509_get_default_cert_dir_env
                0x00000000402209fe                X509_get_default_cert_file_env
                0x0000000040220a3a                i2d_ASN1_SET
                0x0000000040220cbe                d2i_ASN1_SET
                0x000000004022157e                ASN1_generate_v3
                0x0000000040221e76                ASN1_generate_nconf
                0x000000004022206f                BN_GF2m_add
                0x0000000040222163                BN_GF2m_mod_arr
                0x000000004022241b                BN_GF2m_mod_sqr_arr
                0x00000000402225ba                BN_GF2m_mod_mul_arr
                0x0000000040222863                BN_GF2m_mod_exp_arr
                0x000000004022297f                BN_GF2m_mod_sqrt_arr
                0x0000000040222a0e                BN_GF2m_mod_solve_quad_arr
                0x0000000040222de0                BN_GF2m_poly2arr
                0x0000000040222e71                BN_GF2m_mod
                0x0000000040222f17                BN_GF2m_mod_inv
                0x00000000402230f7                BN_GF2m_mod_mul
                0x00000000402231af                BN_GF2m_mod_div
                0x0000000040223239                BN_GF2m_mod_sqr
                0x00000000402232e9                BN_GF2m_mod_exp
                0x00000000402233a1                BN_GF2m_mod_sqrt
                0x0000000040223451                BN_GF2m_mod_solve_quad
                0x0000000040223501                BN_GF2m_arr2poly
                0x0000000040223552                BN_GF2m_mod_inv_arr
                0x00000000402235c4                BN_GF2m_mod_div_arr
                0x0000000040223640                CONF_set_nconf
                0x000000004022367a                CONF_set_default_method
                0x0000000040223687                CONF_load
                0x00000000402236b4                NCONF_new
                0x00000000402236f4                NCONF_free
                0x0000000040223709                NCONF_free_data
                0x000000004022371e                CONF_free
                0x000000004022373e                NCONF_load
                0x0000000040223778                NCONF_load_bio
                0x00000000402237b2                CONF_load_bio
                0x00000000402237f2                NCONF_get_section
                0x0000000040223856                CONF_get_section
                0x000000004022388b                NCONF_get_string
                0x0000000040223915                CONF_get_string
                0x0000000040223951                NCONF_get_number_e
                0x00000000402239f4                CONF_get_number
                0x0000000040223a4d                NCONF_dump_bio
                0x0000000040223a87                CONF_dump_bio
                0x0000000040223aaf                DSO_METHOD_null
                0x00000000402243b8                ec_GF2m_simple_mul
                0x0000000040224641                ec_GF2m_precompute_mult
                0x000000004022464f                ec_GF2m_have_precompute_mult
                0x000000004022465d                i2a_ASN1_INTEGER
                0x00000000402247a2                a2i_ASN1_INTEGER
                0x0000000040224a78                i2a_ASN1_STRING
                0x0000000040224b89                a2i_ASN1_STRING
                0x0000000040224e27                d2i_OCSP_SIGNATURE
                0x0000000040224e3a                i2d_OCSP_SIGNATURE
                0x0000000040224e4d                OCSP_SIGNATURE_new
                0x0000000040224e60                OCSP_SIGNATURE_free
                0x0000000040224e73                d2i_OCSP_CERTID
                0x0000000040224e86                i2d_OCSP_CERTID
                0x0000000040224e99                OCSP_CERTID_new
                0x0000000040224eac                OCSP_CERTID_free
                0x0000000040224ebf                d2i_OCSP_ONEREQ
                0x0000000040224ed2                i2d_OCSP_ONEREQ
                0x0000000040224ee5                OCSP_ONEREQ_new
                0x0000000040224ef8                OCSP_ONEREQ_free
                0x0000000040224f0b                d2i_OCSP_REQINFO
                0x0000000040224f1e                i2d_OCSP_REQINFO
                0x0000000040224f31                OCSP_REQINFO_new
                0x0000000040224f44                OCSP_REQINFO_free
                0x0000000040224f57                d2i_OCSP_REQUEST
                0x0000000040224f6a                i2d_OCSP_REQUEST
                0x0000000040224f7d                OCSP_REQUEST_new
                0x0000000040224f90                OCSP_REQUEST_free
                0x0000000040224fa3                d2i_OCSP_RESPBYTES
                0x0000000040224fb6                i2d_OCSP_RESPBYTES
                0x0000000040224fc9                OCSP_RESPBYTES_new
                0x0000000040224fdc                OCSP_RESPBYTES_free
                0x0000000040224fef                d2i_OCSP_RESPONSE
                0x0000000040225002                i2d_OCSP_RESPONSE
                0x0000000040225015                OCSP_RESPONSE_new
                0x0000000040225028                OCSP_RESPONSE_free
                0x000000004022503b                d2i_OCSP_RESPID
                0x000000004022504e                i2d_OCSP_RESPID
                0x0000000040225061                OCSP_RESPID_new
                0x0000000040225074                OCSP_RESPID_free
                0x0000000040225087                d2i_OCSP_REVOKEDINFO
                0x000000004022509a                i2d_OCSP_REVOKEDINFO
                0x00000000402250ad                OCSP_REVOKEDINFO_new
                0x00000000402250c0                OCSP_REVOKEDINFO_free
                0x00000000402250d3                d2i_OCSP_CERTSTATUS
                0x00000000402250e6                i2d_OCSP_CERTSTATUS
                0x00000000402250f9                OCSP_CERTSTATUS_new
                0x000000004022510c                OCSP_CERTSTATUS_free
                0x000000004022511f                d2i_OCSP_SINGLERESP
                0x0000000040225132                i2d_OCSP_SINGLERESP
                0x0000000040225145                OCSP_SINGLERESP_new
                0x0000000040225158                OCSP_SINGLERESP_free
                0x000000004022516b                d2i_OCSP_RESPDATA
                0x000000004022517e                i2d_OCSP_RESPDATA
                0x0000000040225191                OCSP_RESPDATA_new
                0x00000000402251a4                OCSP_RESPDATA_free
                0x00000000402251b7                d2i_OCSP_BASICRESP
                0x00000000402251ca                i2d_OCSP_BASICRESP
                0x00000000402251dd                OCSP_BASICRESP_new
                0x00000000402251f0                OCSP_BASICRESP_free
                0x0000000040225203                d2i_OCSP_CRLID
                0x0000000040225216                i2d_OCSP_CRLID
                0x0000000040225229                OCSP_CRLID_new
                0x000000004022523c                OCSP_CRLID_free
                0x000000004022524f                d2i_OCSP_SERVICELOC
                0x0000000040225262                i2d_OCSP_SERVICELOC
                0x0000000040225275                OCSP_SERVICELOC_new
                0x0000000040225288                OCSP_SERVICELOC_free
                0x0000000040225626                i2v_ASN1_BIT_STRING
                0x0000000040225677                v2i_ASN1_BIT_STRING
                0x00000000402257ec                i2s_ASN1_ENUMERATED_TABLE
                0x00000000402259ad                d2i_EXTENDED_KEY_USAGE
                0x00000000402259c0                i2d_EXTENDED_KEY_USAGE
                0x00000000402259d3                EXTENDED_KEY_USAGE_new
                0x00000000402259e6                EXTENDED_KEY_USAGE_free
                0x0000000040225c40                _CONF_get_section
                0x0000000040225c77                _CONF_get_section_values
                0x0000000040225c95                _CONF_add_string
                0x0000000040225d01                _CONF_get_string
                0x0000000040225d8c                _CONF_new_data
                0x0000000040225dc8                _CONF_free_data
                0x0000000040225e0d                _CONF_new_section
                0x0000000040226db8                NCONF_default
                0x0000000040226dbe                NCONF_WIN32
                0x0000000040226dc4                codeend = .

.iplt           0x0000000040226dd0        0x0 load address 0x0000000000226dd0
 .iplt          0x0000000040226dd0        0x0 output.o

.rodata         0x0000000040226de0    0x34c0b load address 0x0000000000226de0
 .rodata        0x0000000040226de0    0x34c0b output.o
                0x0000000040232880                tcp_pcb_lists
                0x00000000402328a0                tcp_persist_backoff
                0x00000000402328a8                tcp_backoff
                0x00000000402328c0                tcp_state_str
                0x0000000040232980                ip_addr_broadcast
                0x0000000040232984                ip_addr_any
                0x0000000040232988                ethzero
                0x000000004023298e                ethbroadcast
                0x0000000040234c20                BN_version
                0x0000000040234f00                DES_SPtrans
                0x0000000040235f00                DH_version
                0x00000000402373e0                OSSL_DES_version
                0x0000000040237420                OSSL_libdes_version
                0x0000000040237500                EVP_version
                0x00000000402375c0                IDEA_version
                0x0000000040237600                lh_version
                0x0000000040237c40                MD4_version
                0x0000000040237c80                MD5_version
                0x0000000040244820                PEM_version
                0x0000000040244860                PKCS7_ATTR_VERIFY_it
                0x00000000402448e0                PKCS7_ATTR_SIGN_it
                0x0000000040244960                PKCS7_DIGEST_it
                0x0000000040244a40                PKCS7_ENCRYPT_it
                0x0000000040244ae0                PKCS7_SIGN_ENVELOPE_it
                0x0000000040244c40                PKCS7_ENC_CONTENT_it
                0x0000000040244d00                PKCS7_RECIP_INFO_it
                0x0000000040244e20                PKCS7_ENVELOPE_it
                0x0000000040244ee0                PKCS7_ISSUER_AND_SERIAL_it
                0x0000000040244f80                PKCS7_SIGNER_INFO_it
                0x0000000040245120                PKCS7_SIGNED_it
                0x0000000040245260                PKCS7_it
                0x00000000402455e0                RC2_version
                0x0000000040245720                RC4_version
                0x0000000040245760                RMD160_version
                0x00000000402457a0                RSAPublicKey_it
                0x0000000040245880                RSAPrivateKey_it
                0x0000000040245a80                RSA_version
                0x0000000040246c80                SHA1_version
                0x0000000040246dc0                SHA256_version
                0x0000000040247080                SHA512_version
                0x00000000402470c0                SHA_version
                0x0000000040247100                STACK_version
                0x00000000402473e0                ASN1_SET_ANY_it
                0x0000000040247460                ASN1_SEQUENCE_ANY_it
                0x00000000402474e0                ASN1_OCTET_STRING_NDEF_it
                0x0000000040247520                ASN1_FBOOLEAN_it
                0x0000000040247560                ASN1_TBOOLEAN_it
                0x00000000402475a0                ASN1_BOOLEAN_it
                0x00000000402475e0                DIRECTORYSTRING_it
                0x0000000040247620                DISPLAYTEXT_it
                0x0000000040247660                ASN1_PRINTABLE_it
                0x00000000402476a0                ASN1_SEQUENCE_it
                0x00000000402476e0                ASN1_ANY_it
                0x0000000040247720                ASN1_BMPSTRING_it
                0x0000000040247760                ASN1_UNIVERSALSTRING_it
                0x00000000402477a0                ASN1_VISIBLESTRING_it
                0x00000000402477e0                ASN1_GENERALIZEDTIME_it
                0x0000000040247820                ASN1_UTCTIME_it
                0x0000000040247860                ASN1_GENERALSTRING_it
                0x00000000402478a0                ASN1_IA5STRING_it
                0x00000000402478e0                ASN1_T61STRING_it
                0x0000000040247920                ASN1_PRINTABLESTRING_it
                0x0000000040247960                ASN1_UTF8STRING_it
                0x00000000402479a0                ASN1_OBJECT_it
                0x00000000402479e0                ASN1_NULL_it
                0x0000000040247a20                ASN1_OCTET_STRING_it
                0x0000000040247a60                ASN1_BIT_STRING_it
                0x0000000040247aa0                ASN1_ENUMERATED_it
                0x0000000040247ae0                ASN1_INTEGER_it
                0x0000000040247b40                X509_version
                0x0000000040247ca0                X509_ALGORS_it
                0x0000000040247d20                X509_ALGOR_it
                0x0000000040247dc0                X509_ATTRIBUTE_it
                0x0000000040247e60                X509_ATTRIBUTE_SET_it
                0x0000000040247f00                CBIGNUM_it
                0x0000000040247f40                BIGNUM_it
                0x0000000040247f80                X509_CRL_it
                0x0000000040248080                X509_CRL_INFO_it
                0x0000000040248220                X509_REVOKED_it
                0x00000000402482e0                X509_EXTENSIONS_it
                0x0000000040248360                X509_EXTENSION_it
                0x0000000040248420                ZLONG_it
                0x0000000040248460                LONG_it
                0x00000000402484a0                X509_NAME_it
                0x00000000402484e0                x509_name_ff
                0x0000000040248520                X509_NAME_INTERNAL_it
                0x00000000402485a0                X509_NAME_ENTRIES_it
                0x0000000040248620                X509_NAME_ENTRY_it
                0x00000000402486c0                X509_PUBKEY_it
                0x00000000402487a0                X509_REQ_it
                0x00000000402488a0                X509_REQ_INFO_it
                0x00000000402489c0                X509_SIG_it
                0x0000000040248a60                NETSCAPE_SPKI_it
                0x0000000040248b20                NETSCAPE_SPKAC_it
                0x0000000040248bc0                X509_it
                0x0000000040248cc0                X509_CINF_it
                0x0000000040248ee0                X509_CERT_PAIR_it
                0x0000000040248f80                X509_CERT_AUX_it
                0x0000000040249520                rsa_pkey_meth
                0x0000000040249600                dh_pkey_meth
                0x00000000402496e0                dsa_pkey_meth
                0x00000000402497c0                ec_pkey_meth
                0x00000000402498a0                hmac_pkey_meth
                0x00000000402499c0                rsa_asn1_meths
                0x0000000040249b40                dh_asn1_meth
                0x0000000040249c00                dsa_asn1_meths
                0x0000000040249fa0                eckey_asn1_meth
                0x000000004024a060                hmac_asn1_meth
                0x000000004024b1a0                CMS_Receipt_it
                0x000000004024b280                CMS_ReceiptRequest_it
                0x000000004024b340                CMS_ReceiptsFrom_it
                0x000000004024b3e0                CMS_Attributes_Verify_it
                0x000000004024b460                CMS_Attributes_Sign_it
                0x000000004024b4e0                CMS_ContentInfo_it
                0x000000004024b7a0                CMS_CompressedData_it
                0x000000004024b860                CMS_AuthenticatedData_it
                0x000000004024ba20                CMS_EncryptedData_it
                0x000000004024bae0                CMS_DigestedData_it
                0x000000004024bbc0                CMS_EnvelopedData_it
                0x000000004024bce0                CMS_RecipientInfo_it
                0x000000004024be40                CMS_OtherRecipientInfo_it
                0x000000004024bee0                CMS_PasswordRecipientInfo_it
                0x000000004024bfc0                CMS_KEKRecipientInfo_it
                0x000000004024c0a0                CMS_KEKIdentifier_it
                0x000000004024c160                CMS_KeyAgreeRecipientInfo_it
                0x000000004024c280                CMS_OriginatorIdentifierOrKey_it
                0x000000004024c340                CMS_OriginatorPublicKey_it
                0x000000004024c3e0                CMS_RecipientEncryptedKey_it
                0x000000004024c480                CMS_KeyAgreeRecipientIdentifier_it
                0x000000004024c520                CMS_RecipientKeyIdentifier_it
                0x000000004024c5e0                CMS_OtherKeyAttribute_it
                0x000000004024c680                CMS_KeyTransRecipientInfo_it
                0x000000004024c760                CMS_EncryptedContentInfo_it
                0x000000004024c820                CMS_OriginatorInfo_it
                0x000000004024c8c0                CMS_SignedData_it
                0x000000004024ca00                CMS_RevocationInfoChoice_it
                0x000000004024caa0                CMS_OtherRevocationInfoFormat_it
                0x000000004024cb40                CMS_SignerInfo_it
                0x000000004024cce0                CMS_EncapsulatedContentInfo_it
                0x000000004024cd80                CMS_SignerIdentifier_it
                0x000000004024ce20                CMS_CertificateChoices_it
                0x000000004024cf40                CMS_OtherCertificateFormat_it
                0x000000004024cfe0                CMS_IssuerAndSerialNumber_it
                0x000000004024d260                ASN1_TIME_it
                0x000000004024d2e0                ASN1_version
                0x000000004024d420                BF_version
                0x000000004024f640                CAST_version
                0x000000004024f700                CAST_S_table7
                0x000000004024fb00                CAST_S_table6
                0x000000004024ff00                CAST_S_table5
                0x0000000040250300                CAST_S_table4
                0x0000000040250700                CAST_S_table3
                0x0000000040250b00                CAST_S_table2
                0x0000000040250f00                CAST_S_table1
                0x0000000040251300                CAST_S_table0
                0x0000000040251940                DHparams_it
                0x0000000040251a40                DSAPublicKey_it
                0x0000000040251b20                dsa_pub_internal_it
                0x0000000040251c00                DSAparams_it
                0x0000000040251d00                DSAPrivateKey_it
                0x0000000040251e80                DSA_SIG_it
                0x0000000040251f60                DSA_version
                0x0000000040251fa0                EC_PRIVATEKEY_it
                0x0000000040252080                ECPKPARAMETERS_it
                0x0000000040252140                ECPARAMETERS_it
                0x0000000040252280                X9_62_CURVE_it
                0x0000000040252340                X9_62_FIELDID_it
                0x00000000402524c0                X9_62_CHARACTERISTIC_TWO_it
                0x00000000402526a0                X9_62_PENTANOMIAL_it
                0x00000000402560e0                ECDH_version
                0x00000000402564e0                ECDSA_version
                0x00000000402567e0                RAND_version
                0x0000000040256820                NETSCAPE_CERT_SEQUENCE_it
                0x0000000040256900                PBEPARAM_it
                0x00000000402569a0                PBKDF2PARAM_it
                0x0000000040256a80                PBE2PARAM_it
                0x0000000040256b20                PKCS8_PRIV_KEY_INFO_it
                0x0000000040256ce0                AUTHORITY_KEYID_it
                0x0000000040256da0                NOTICEREF_it
                0x0000000040256e40                USERNOTICE_it
                0x0000000040256ee0                POLICYQUALINFO_it
                0x0000000040257060                POLICYINFO_it
                0x0000000040257100                CERTIFICATEPOLICIES_it
                0x0000000040257180                v3_cpols
                0x0000000040257200                v3_idp
                0x0000000040257280                ISSUING_DIST_POINT_it
                0x00000000402573c0                CRL_DIST_POINTS_it
                0x0000000040257440                DIST_POINT_it
                0x0000000040257500                DIST_POINT_NAME_it
                0x00000000402576e0                v3_freshest_crl
                0x0000000040257760                v3_crld
                0x00000000402578c0                GENERAL_NAMES_it
                0x0000000040257940                GENERAL_NAME_it
                0x0000000040257b00                EDIPARTYNAME_it
                0x0000000040257ba0                OTHERNAME_it
                0x0000000040257c40                NAME_CONSTRAINTS_it
                0x0000000040257ce0                GENERAL_SUBTREE_it
                0x0000000040257da0                v3_name_constraints
                0x0000000040257e20                POLICY_CONSTRAINTS_it
                0x0000000040257ec0                v3_policy_constraints
                0x0000000040257f40                POLICY_MAPPINGS_it
                0x0000000040257fc0                POLICY_MAPPING_it
                0x0000000040258060                v3_policy_mappings
                0x0000000040258140                X509_VAL_it
                0x0000000040258be0                ECDSA_SIG_it
                0x0000000040258c80                PKCS12_AUTHSAFES_it
                0x0000000040258d00                PKCS12_SAFEBAGS_it
                0x0000000040258d80                PKCS12_SAFEBAG_it
                0x0000000040258fe0                PKCS12_BAGS_it
                0x00000000402591a0                PKCS12_MAC_DATA_it
                0x0000000040259260                PKCS12_it
                0x0000000040259400                v3_alt
                0x0000000040259540                BASIC_CONSTRAINTS_it
                0x00000000402595e0                v3_bcons
                0x0000000040259660                AUTHORITY_INFO_ACCESS_it
                0x00000000402596e0                ACCESS_DESCRIPTION_it
                0x0000000040259780                v3_sinfo
                0x0000000040259800                v3_info
                0x0000000040259880                v3_ocsp_serviceloc
                0x0000000040259900                v3_ocsp_nocheck
                0x0000000040259980                v3_ocsp_nonce
                0x0000000040259a00                v3_crl_hold
                0x0000000040259a80                v3_crl_invdate
                0x0000000040259b00                v3_ocsp_acutoff
                0x0000000040259b80                v3_ocsp_crlid
                0x0000000040259c00                v3_pci
                0x0000000040259c80                PROXY_CERT_INFO_EXTENSION_it
                0x0000000040259d20                PROXY_POLICY_it
                0x0000000040259dc0                PKEY_USAGE_PERIOD_it
                0x0000000040259e60                v3_pkey_usage_period
                0x0000000040259ee0                v3_skey_id
                0x0000000040259f60                SXNET_it
                0x000000004025a000                SXNETID_it
                0x000000004025a0a0                v3_sxnet
                0x000000004025a5c0                CONF_version
                0x000000004025a600                OCSP_SERVICELOC_it
                0x000000004025a6a0                OCSP_CRLID_it
                0x000000004025a760                OCSP_BASICRESP_it
                0x000000004025a840                OCSP_RESPDATA_it
                0x000000004025a960                OCSP_SINGLERESP_it
                0x000000004025aa80                OCSP_CERTSTATUS_it
                0x000000004025ab40                OCSP_REVOKEDINFO_it
                0x000000004025abe0                OCSP_RESPID_it
                0x000000004025ac80                OCSP_RESPONSE_it
                0x000000004025ad20                OCSP_RESPBYTES_it
                0x000000004025adc0                OCSP_REQUEST_it
                0x000000004025ae60                OCSP_REQINFO_it
                0x000000004025af40                OCSP_ONEREQ_it
                0x000000004025afe0                OCSP_CERTID_it
                0x000000004025b0c0                OCSP_SIGNATURE_it
                0x000000004025b180                v3_akey_id
                0x000000004025b200                v3_key_usage
                0x000000004025b280                v3_nscert
                0x000000004025b300                v3_crl_reason
                0x000000004025b380                EXTENDED_KEY_USAGE_it
                0x000000004025b400                v3_ocsp_accresp
                0x000000004025b480                v3_ext_ku
                0x000000004025b500                v3_ns_ia5_list
                0x000000004025b840                v3_inhibit_anyp
                0x000000004025b8c0                v3_delta_crl
                0x000000004025b940                v3_crl_num
                0x000000004025b9c0                CONF_def_version

.rodata.str1.8  0x000000004025b9f0     0xbc20 load address 0x000000000025b9f0
 .rodata.str1.8
                0x000000004025b9f0     0xbc20 output.o
                                       0xc22d (size before relaxing)

.rodata.str1.1  0x0000000040267610    0x13c6a load address 0x0000000000267610
 .rodata.str1.1
                0x0000000040267610    0x13c6a output.o
                                      0x16442 (size before relaxing)

.eh_frame       0x000000004027b280    0x3cf18 load address 0x000000000027b280
 .eh_frame      0x000000004027b280    0x3cf18 output.o
                                      0x40560 (size before relaxing)

.eh_frame_hdr   0x00000000402b8198     0xb84c load address 0x00000000002b8198
 .eh_frame_hdr  0x00000000402b8198     0xb84c output.o
                0x00000000402b8198                __GNU_EH_FRAME_HDR

.rela.dyn       0x00000000402c39e8        0x0 load address 0x00000000002c39e8
 .rela.iplt     0x00000000402c39e8        0x0 output.o
 .rela.text     0x00000000402c39e8        0x0 output.o
 .rela.entry.text
                0x00000000402c39e8        0x0 output.o
 .rela.rodata   0x00000000402c39e8        0x0 output.o

.data           0x00000000402c4000   0xb59278 load address 0x00000000002c4000
                0x00000000402c4000                data = .
 *(.data)
 .data          0x00000000402c4000   0xb58615 output.o
                0x00000000402c4008                uefi_memory_map_size
                0x00000000402c4020                config
                0x00000000402d4790                vmm_start_phys
                0x00000000402d4794                use_pae
                0x00000000402d49b0                savemsr_index
                0x00000000402d9000                calluefi
                0x00000000402d9216                calluefi_uefi_gdtr
                0x00000000402d9226                calluefi_uefi_idtr
                0x00000000402d9236                calluefi_uefi_ldtr
                0x00000000402d923e                calluefi_uefi_sregs
                0x00000000402d924e                calluefi_uefi_cr3
                0x00000000402d9256                guest_int0x15_hook
                0x00000000402d9273                guest_int0x15_e801_fake_ax
                0x00000000402d9276                guest_int0x15_e801_fake_bx
                0x00000000402d9287                guest_int0x15_orig
                0x00000000402d929c                guest_int0x15_e820_data_minus0x18
                0x00000000402d92a4                guest_int0x15_e820_end
                0x00000000402d92ca                guest_int0x15_hook_end
                0x00000000402da2ce                wakeup_entry_start
                0x00000000402da2d7                wakeup_entry_addr
                0x00000000402da2fd                wakeup_entry_cr4
                0x00000000402da306                wakeup_entry_cr3
                0x00000000402da30f                wakeup_entry_cr0
                0x00000000402da31e                wakeup_entry_gdtr
                0x00000000402da328                wakeup_entry_end
                0x00000000402da5a0                ata_bm_handler_table
                0x00000000402da600                ata_ctlblk_handler_table
                0x00000000402da620                ata_cmdblk_handler_table
                0x00000000402db0b0                usb_log_level
                0x00000000402db980                hSessionCnt
                0x00000000402db988                hObjectCnt
                0x00000000402dc180                g_rgSCardT1Pci
                0x00000000402dc190                g_rgSCardT0Pci
                0x00000000402dc1a0                FI
                0x00000000402dc1e0                DI
                0x00000000402e0880                default_pctx
                0x00000000402e3b00                rand_ssleay_meth
                0x0000000040e1c618                . = ALIGN (0x8)
 *fill*         0x0000000040e1c615        0x3 
                0x0000000040e1c618                __initfunc_start = .
 *(.initfunc)
 .initfunc      0x0000000040e1c618      0xa80 output.o
                0x0000000040e1c618                __initfunc_acpi_init_paral
                0x0000000040e1c630                __initfunc_acpi_init_global
                0x0000000040e1c648                __initfunc_beep_init_msg
                0x0000000040e1c660                __initfunc_cache_init_pass
                0x0000000040e1c678                __initfunc_cache_init_vcpu
                0x0000000040e1c690                __initfunc_update_mtrr_and_pat
                0x0000000040e1c6a8                __initfunc_cache_init_pcpu
                0x0000000040e1c6c0                __initfunc_callrealmode_panic
                0x0000000040e1c6d8                __initfunc_callrealmode_init_global
                0x0000000040e1c6f0                __initfunc_cpu_mmu_spt_init_pcpu
                0x0000000040e1c708                __initfunc_cpu_mmu_spt_init_global
                0x0000000040e1c720                __initfunc_cpuid_init
                0x0000000040e1c738                __initfunc_cpuid_pass_init
                0x0000000040e1c750                __initfunc_exint_pass_init
                0x0000000040e1c768                __initfunc_gmm_pass_init
                0x0000000040e1c780                __initfunc_install_int0x15_hook
                0x0000000040e1c798                __initfunc_idman_init
                0x0000000040e1c7b0                __initfunc_idman_init_global
                0x0000000040e1c7c8                __initfunc_int_wakeup
                0x0000000040e1c7e0                __initfunc_int_init_global
                0x0000000040e1c7f8                __initfunc_io_io_init
                0x0000000040e1c810                __initfunc_setiohooks
                0x0000000040e1c828                __initfunc_io_iopass_init
                0x0000000040e1c840                __initfunc_keyboard_init_msg
                0x0000000040e1c858                __initfunc_localapic_init2
                0x0000000040e1c870                __initfunc_localapic_init
                0x0000000040e1c888                __initfunc_get_shiftflags
                0x0000000040e1c8a0                __initfunc_copy_minios
                0x0000000040e1c8b8                __initfunc_print_boot_msg
                0x0000000040e1c8d0                __initfunc_debug_on_shift_key
                0x0000000040e1c8e8                __initfunc_wait_for_create_pass_vm
                0x0000000040e1c900                __initfunc_create_pass_vm
                0x0000000040e1c918                __initfunc_virtualization_init_pcpu
                0x0000000040e1c930                __initfunc_unmap_user_area
                0x0000000040e1c948                __initfunc_mm_init_global
                0x0000000040e1c960                __initfunc_mmio_debug
                0x0000000040e1c978                __initfunc_mmio_init
                0x0000000040e1c990                __initfunc_msg_init_global
                0x0000000040e1c9a8                __initfunc_msr_init
                0x0000000040e1c9c0                __initfunc_msr_pass_init
                0x0000000040e1c9d8                __initfunc_nmi_pass_init_pcpu
                0x0000000040e1c9f0                __initfunc_nmi_pass_init
                0x0000000040e1ca08                __initfunc_panic_init_pcpu
                0x0000000040e1ca20                __initfunc_panic_init_msg
                0x0000000040e1ca38                __initfunc_panic_init_global3
                0x0000000040e1ca50                __initfunc_panic_init_global
                0x0000000040e1ca68                __initfunc_printf_init_global
                0x0000000040e1ca80                __initfunc_process_wakeup
                0x0000000040e1ca98                __initfunc_process_init_ap
                0x0000000040e1cab0                __initfunc_process_init_global
                0x0000000040e1cac8                __initfunc_random_init_config0
                0x0000000040e1cae0                __initfunc_random_init_global
                0x0000000040e1caf8                __initfunc_reboot_init_msg
                0x0000000040e1cb10                __initfunc_segment_init_global
                0x0000000040e1cb28                __initfunc_serial_init_msg
                0x0000000040e1cb40                __initfunc_sleep_init_msg
                0x0000000040e1cb58                __initfunc_sleep_init_global
                0x0000000040e1cb70                __initfunc_svm_panic
                0x0000000040e1cb88                __initfunc_sx_init_pass_init
                0x0000000040e1cba0                __initfunc_thread_init_pcpu
                0x0000000040e1cbb8                __initfunc_thread_init_global
                0x0000000040e1cbd0                __initfunc_time_wakeup
                0x0000000040e1cbe8                __initfunc_time_init_msg
                0x0000000040e1cc00                __initfunc_time_init_dbsp
                0x0000000040e1cc18                __initfunc_time_init_pcpu
                0x0000000040e1cc30                __initfunc_time_init_global_status
                0x0000000040e1cc48                __initfunc_time_init_global
                0x0000000040e1cc60                __initfunc_timer_init_global
                0x0000000040e1cc78                __initfunc_tty_init_msg
                0x0000000040e1cc90                __initfunc_tty_init_global2
                0x0000000040e1cca8                __initfunc_tty_init_global
                0x0000000040e1ccc0                __initfunc_vcpu_init_global
                0x0000000040e1ccd8                __initfunc_vga_init
                0x0000000040e1ccf0                __initfunc_vmmcall_init
                0x0000000040e1cd08                __initfunc_vmmcall_boot_init
                0x0000000040e1cd20                __initfunc_vmmcall_dbgsh_init_global
                0x0000000040e1cd38                __initfunc_vmmcall_dbgsh_init
                0x0000000040e1cd50                __initfunc_vmmcall_iccard_init
                0x0000000040e1cd68                __initfunc_vmmcall_status_init
                0x0000000040e1cd80                __initfunc_vmmcall_status_init_global
                0x0000000040e1cd98                __initfunc_vramwrite_init_bsp
                0x0000000040e1cdb0                __initfunc_vramwrite_init_msg
                0x0000000040e1cdc8                __initfunc_vt_register_status_callback
                0x0000000040e1cde0                __initfunc_vt_panic
                0x0000000040e1cdf8                __initfunc_xsetbv_init
                0x0000000040e1ce10                __initfunc_xsetbv_pass_init
                0x0000000040e1ce28                __initfunc_core_init
                0x0000000040e1ce40                __initfunc_ieee1394_init
                0x0000000040e1ce58                __initfunc_iommu_setup
                0x0000000040e1ce70                __initfunc_pci_conceal_init
                0x0000000040e1ce88                __initfunc_pci_init
                0x0000000040e1cea0                __initfunc_pci_match_compat_init
                0x0000000040e1ceb8                __initfunc_ieee1394_thunderbolt_conceal
                0x0000000040e1ced0                __initfunc_ieee1394_hint
                0x0000000040e1cee8                __initfunc_ieee1394log_init
                0x0000000040e1cf00                __initfunc_x540_init
                0x0000000040e1cf18                __initfunc_pci_monitor_init_msg
                0x0000000040e1cf30                __initfunc_pci_monitor_init
                0x0000000040e1cf48                __initfunc_ata_init
                0x0000000040e1cf60                __initfunc_uhci_init
                0x0000000040e1cf78                __initfunc_ehci_init
                0x0000000040e1cf90                __initfunc_pro100_init
                0x0000000040e1cfa8                __initfunc_resume_pro1000
                0x0000000040e1cfc0                __initfunc_vpn_pro1000_init
                0x0000000040e1cfd8                __initfunc_bnx_init
                0x0000000040e1cff0                __initfunc_storage_kernel_init
                0x0000000040e1d008                __initfunc_storage_io_initfunc
                0x0000000040e1d020                __initfunc_vpn_kernel_init
                0x0000000040e1d038                __initfunc_idman_kernel_init
                0x0000000040e1d050                __initfunc_netapi_init
                0x0000000040e1d068                __initfunc_net_main_init
                0x0000000040e1d080                __initfunc_echoctl_init_msg
                0x0000000040e1d098                __initfunc_end = .
                0x0000000040e1d098                __process_builtin = .
 *(.processes)
 .processes     0x0000000040e1d098      0x1e0 output.o
                0x0000000040e1d278                __process_builtin_end = .
                0x0000000040e1d278                dataend = .

.igot.plt       0x0000000040e1d278        0x0 load address 0x0000000000e1d278
 .igot.plt      0x0000000040e1d278        0x0 output.o

.bss            0x0000000040e1e000  0x12be000 load address 0x0000000000e1e000
                0x0000000040e1e000                bss = .
 *(.bss)
 .bss           0x0000000040e1e000   0x2b85d8 output.o
                0x0000000040e1e0f0                uefi_memory_map_descsize
                0x0000000040e22000                vmmsize
                0x0000000040e22008                memorysize
                0x0000000040f6ca80                pcpu_default
                0x0000000040f8c868                ps2_locked
                0x0000000040fae8e0                handler_descriptor
                0x0000000040faeae8                drhd_list_head
                0x0000000040faeaf8                pci_driver_list_head
                0x0000000040faeb00                pci_device_list_head
                0x0000000040faf470                uhci_monitor_boost_hc
                0x0000000040faf488                usb_hc_list_head
                0x0000000040faf490                usb_busses_head
                0x0000000040fb6c60                rt
                0x00000000410d0688                hContext
                0x00000000410d0690                sessionTable
                0x00000000410d0698                slotTable
                0x00000000410d06a0                slotFlag
                0x00000000410d06a1                libInitFlag
                0x00000000410d51d8                OPENSSL_NONPIC_relocated
                0x00000000410d51e0                OPENSSL_ia32cap_P
                0x00000000410d5e28                cleanse_ctr
                0x00000000410d5e88                obj_cleanup_defer
                0x00000000410d5ea8                _shadow_DES_check_key
                0x00000000410d5f98                app_pkey_methods
                0x00000000410d6000                chelp_inited
 *(COMMON)
 *fill*         0x00000000410d65d8        0x8 
 COMMON         0x00000000410d65e0  0x1004fd0 output.o
                0x00000000410d65e0                clflush_size
                0x00000000410d6600                sReaderContext
                0x00000000410d6660                uefi_memory_map_data
                0x00000000410da660                current_iphdr_src
                0x00000000410da664                uefi_booted
                0x00000000410da668                sigx_app
                0x00000000410da670                tcp_tw_pcbs
                0x00000000410da678                tcp_ticks
                0x00000000410da67c                num_dom
                0x00000000410da680                mszReaders
                0x00000000410daa80                udp_pcbs
                0x00000000410daa88                prohibit_iccard_init
                0x00000000410daa90                tcp_tmp_pcb
                0x00000000410daa98                tcp_listen_pcbs
                0x00000000410daaa0                pci_config_mmio_data_head
                0x00000000410daaa8                netif_default
                0x00000000410daab0                tcp_active_pcbs
                0x00000000410daab8                curthread
                0x00000000410daac0                current_netif
                0x00000000410daac8                tcp_bound_pcbs
                0x00000000410daae0                ram_heap
                0x00000000420dab00                sig_app
                0x00000000420dab20                readerState
                0x00000000420daba0                dom_io
                0x00000000420db3a0                acpi_dsdt_system_state
                0x00000000420db3c0                current_header
                0x00000000420db3c8                ehci_host
                0x00000000420db3d0                tcp_active_pcbs_changed
                0x00000000420db3d8                tcp_input_pcb
                0x00000000420db3e0                num_of_processors
                0x00000000420db3e4                pbuf_free_ooseq_pending
                0x00000000420db3e6                e801_fake_bx
                0x00000000420db400                dhcp_rx_options_val
                0x00000000420db428                dhcp_rx_options_given
                0x00000000420db432                iommu_detected
                0x00000000420db438                uefi_mmio_space
                0x00000000420db440                dwReaders
                0x00000000420db448                current_iphdr_dest
                0x00000000420db460                readerTracker
                0x00000000420db5a0                handler_descriptor_lock
                0x00000000420db5a2                e801_fake_ax
                0x00000000420db5a8                netif_list
                0x00000000420dc000                . = ALIGN (0x1000)
 *fill*         0x00000000420db5b0      0xa50 
                0x00000000420dc000                end = .

/DISCARD/
 *(.gomi)
LOAD output.o
OUTPUT(bitvisor.elf elf64-x86-64)

.comment        0x0000000000000000       0x34
 .comment       0x0000000000000000       0x34 output.o
                                       0x7b99 (size before relaxing)

.note.GNU-stack
                0x0000000000000000        0x0
 .note.GNU-stack
                0x0000000000000000        0x0 output.o

.debug_aranges  0x0000000000000000     0x71c0
 .debug_aranges
                0x0000000000000000     0x71c0 output.o

.debug_info     0x0000000000000000   0x378f74
 .debug_info    0x0000000000000000   0x378f74 output.o

.debug_abbrev   0x0000000000000000    0x55cb2
 .debug_abbrev  0x0000000000000000    0x55cb2 output.o

.debug_line     0x0000000000000000    0x56f5e
 .debug_line    0x0000000000000000    0x56f5e output.o

.debug_str      0x0000000000000000    0x3c4c8
 .debug_str     0x0000000000000000    0x3c4c8 output.o
                                     0x16b966 (size before relaxing)

.debug_loc      0x0000000000000000   0x2ab7cf
 .debug_loc     0x0000000000000000   0x2ab7cf output.o

.debug_ranges   0x0000000000000000     0x7b20
 .debug_ranges  0x0000000000000000     0x7b20 output.o

Cross Reference Table

Symbol                                            File
ACCESS_DESCRIPTION_free                           output.o
ACCESS_DESCRIPTION_it                             output.o
ACCESS_DESCRIPTION_new                            output.o
AES_cbc_encrypt                                   output.o
AES_cfb128_encrypt                                output.o
AES_cfb1_encrypt                                  output.o
AES_cfb8_encrypt                                  output.o
AES_decrypt                                       output.o
AES_ecb_encrypt                                   output.o
AES_encrypt                                       output.o
AES_ofb128_encrypt                                output.o
AES_set_decrypt_key                               output.o
AES_set_encrypt_key                               output.o
AES_unwrap_key                                    output.o
AES_wrap_key                                      output.o
ASN1_ANY_it                                       output.o
ASN1_BIT_STRING_check                             output.o
ASN1_BIT_STRING_free                              output.o
ASN1_BIT_STRING_get_bit                           output.o
ASN1_BIT_STRING_it                                output.o
ASN1_BIT_STRING_new                               output.o
ASN1_BIT_STRING_set                               output.o
ASN1_BIT_STRING_set_bit                           output.o
ASN1_BMPSTRING_free                               output.o
ASN1_BMPSTRING_it                                 output.o
ASN1_BMPSTRING_new                                output.o
ASN1_BOOLEAN_it                                   output.o
ASN1_ENUMERATED_free                              output.o
ASN1_ENUMERATED_get                               output.o
ASN1_ENUMERATED_it                                output.o
ASN1_ENUMERATED_new                               output.o
ASN1_ENUMERATED_set                               output.o
ASN1_ENUMERATED_to_BN                             output.o
ASN1_FBOOLEAN_it                                  output.o
ASN1_GENERALIZEDTIME_adj                          output.o
ASN1_GENERALIZEDTIME_check                        output.o
ASN1_GENERALIZEDTIME_free                         output.o
ASN1_GENERALIZEDTIME_it                           output.o
ASN1_GENERALIZEDTIME_new                          output.o
ASN1_GENERALIZEDTIME_print                        output.o
ASN1_GENERALIZEDTIME_set                          output.o
ASN1_GENERALIZEDTIME_set_string                   output.o
ASN1_GENERALSTRING_free                           output.o
ASN1_GENERALSTRING_it                             output.o
ASN1_GENERALSTRING_new                            output.o
ASN1_IA5STRING_free                               output.o
ASN1_IA5STRING_it                                 output.o
ASN1_IA5STRING_new                                output.o
ASN1_INTEGER_cmp                                  output.o
ASN1_INTEGER_dup                                  output.o
ASN1_INTEGER_free                                 output.o
ASN1_INTEGER_get                                  output.o
ASN1_INTEGER_it                                   output.o
ASN1_INTEGER_new                                  output.o
ASN1_INTEGER_set                                  output.o
ASN1_INTEGER_to_BN                                output.o
ASN1_NULL_free                                    output.o
ASN1_NULL_it                                      output.o
ASN1_NULL_new                                     output.o
ASN1_OBJECT_create                                output.o
ASN1_OBJECT_free                                  output.o
ASN1_OBJECT_it                                    output.o
ASN1_OBJECT_new                                   output.o
ASN1_OCTET_STRING_NDEF_it                         output.o
ASN1_OCTET_STRING_cmp                             output.o
ASN1_OCTET_STRING_dup                             output.o
ASN1_OCTET_STRING_free                            output.o
ASN1_OCTET_STRING_it                              output.o
ASN1_OCTET_STRING_new                             output.o
ASN1_OCTET_STRING_set                             output.o
ASN1_PCTX_free                                    output.o
ASN1_PCTX_get_cert_flags                          output.o
ASN1_PCTX_get_flags                               output.o
ASN1_PCTX_get_nm_flags                            output.o
ASN1_PCTX_get_oid_flags                           output.o
ASN1_PCTX_get_str_flags                           output.o
ASN1_PCTX_new                                     output.o
ASN1_PCTX_set_cert_flags                          output.o
ASN1_PCTX_set_flags                               output.o
ASN1_PCTX_set_nm_flags                            output.o
ASN1_PCTX_set_oid_flags                           output.o
ASN1_PCTX_set_str_flags                           output.o
ASN1_PRINTABLESTRING_free                         output.o
ASN1_PRINTABLESTRING_it                           output.o
ASN1_PRINTABLESTRING_new                          output.o
ASN1_PRINTABLE_free                               output.o
ASN1_PRINTABLE_it                                 output.o
ASN1_PRINTABLE_new                                output.o
ASN1_PRINTABLE_type                               output.o
ASN1_SEQUENCE_ANY_it                              output.o
ASN1_SEQUENCE_it                                  output.o
ASN1_SET_ANY_it                                   output.o
ASN1_STRING_TABLE_add                             output.o
ASN1_STRING_TABLE_cleanup                         output.o
ASN1_STRING_TABLE_get                             output.o
ASN1_STRING_cmp                                   output.o
ASN1_STRING_copy                                  output.o
ASN1_STRING_data                                  output.o
ASN1_STRING_dup                                   output.o
ASN1_STRING_free                                  output.o
ASN1_STRING_get_default_mask                      output.o
ASN1_STRING_length                                output.o
ASN1_STRING_length_set                            output.o
ASN1_STRING_new                                   output.o
ASN1_STRING_print                                 output.o
ASN1_STRING_print_ex                              output.o
ASN1_STRING_set                                   output.o
ASN1_STRING_set0                                  output.o
ASN1_STRING_set_by_NID                            output.o
ASN1_STRING_set_default_mask                      output.o
ASN1_STRING_set_default_mask_asc                  output.o
ASN1_STRING_to_UTF8                               output.o
ASN1_STRING_type                                  output.o
ASN1_STRING_type_new                              output.o
ASN1_T61STRING_free                               output.o
ASN1_T61STRING_it                                 output.o
ASN1_T61STRING_new                                output.o
ASN1_TBOOLEAN_it                                  output.o
ASN1_TIME_adj                                     output.o
ASN1_TIME_check                                   output.o
ASN1_TIME_free                                    output.o
ASN1_TIME_it                                      output.o
ASN1_TIME_new                                     output.o
ASN1_TIME_print                                   output.o
ASN1_TIME_set                                     output.o
ASN1_TIME_set_string                              output.o
ASN1_TIME_to_generalizedtime                      output.o
ASN1_TYPE_cmp                                     output.o
ASN1_TYPE_free                                    output.o
ASN1_TYPE_get                                     output.o
ASN1_TYPE_get_int_octetstring                     output.o
ASN1_TYPE_get_octetstring                         output.o
ASN1_TYPE_new                                     output.o
ASN1_TYPE_set                                     output.o
ASN1_TYPE_set1                                    output.o
ASN1_TYPE_set_int_octetstring                     output.o
ASN1_TYPE_set_octetstring                         output.o
ASN1_UNIVERSALSTRING_free                         output.o
ASN1_UNIVERSALSTRING_it                           output.o
ASN1_UNIVERSALSTRING_new                          output.o
ASN1_UNIVERSALSTRING_to_string                    output.o
ASN1_UTCTIME_adj                                  output.o
ASN1_UTCTIME_check                                output.o
ASN1_UTCTIME_cmp_time_t                           output.o
ASN1_UTCTIME_free                                 output.o
ASN1_UTCTIME_it                                   output.o
ASN1_UTCTIME_new                                  output.o
ASN1_UTCTIME_print                                output.o
ASN1_UTCTIME_set                                  output.o
ASN1_UTCTIME_set_string                           output.o
ASN1_UTF8STRING_free                              output.o
ASN1_UTF8STRING_it                                output.o
ASN1_UTF8STRING_new                               output.o
ASN1_VISIBLESTRING_free                           output.o
ASN1_VISIBLESTRING_it                             output.o
ASN1_VISIBLESTRING_new                            output.o
ASN1_bn_print                                     output.o
ASN1_check_infinite_end                           output.o
ASN1_const_check_infinite_end                     output.o
ASN1_d2i_bio                                      output.o
ASN1_digest                                       output.o
ASN1_dup                                          output.o
ASN1_generate_nconf                               output.o
ASN1_generate_v3                                  output.o
ASN1_get_object                                   output.o
ASN1_i2d_bio                                      output.o
ASN1_item_d2i                                     output.o
ASN1_item_d2i_bio                                 output.o
ASN1_item_digest                                  output.o
ASN1_item_dup                                     output.o
ASN1_item_ex_d2i                                  output.o
ASN1_item_ex_free                                 output.o
ASN1_item_ex_i2d                                  output.o
ASN1_item_ex_new                                  output.o
ASN1_item_free                                    output.o
ASN1_item_i2d                                     output.o
ASN1_item_i2d_bio                                 output.o
ASN1_item_ndef_i2d                                output.o
ASN1_item_new                                     output.o
ASN1_item_pack                                    output.o
ASN1_item_print                                   output.o
ASN1_item_sign                                    output.o
ASN1_item_unpack                                  output.o
ASN1_item_verify                                  output.o
ASN1_mbstring_copy                                output.o
ASN1_mbstring_ncopy                               output.o
ASN1_object_size                                  output.o
ASN1_pack_string                                  output.o
ASN1_parse                                        output.o
ASN1_parse_dump                                   output.o
ASN1_primitive_free                               output.o
ASN1_primitive_new                                output.o
ASN1_put_eoc                                      output.o
ASN1_put_object                                   output.o
ASN1_seq_pack                                     output.o
ASN1_seq_unpack                                   output.o
ASN1_sign                                         output.o
ASN1_tag2bit                                      output.o
ASN1_tag2str                                      output.o
ASN1_template_d2i                                 output.o
ASN1_template_free                                output.o
ASN1_template_i2d                                 output.o
ASN1_template_new                                 output.o
ASN1_unpack_string                                output.o
ASN1_verify                                       output.o
ASN1_version                                      output.o
AUTHORITY_INFO_ACCESS_free                        output.o
AUTHORITY_INFO_ACCESS_it                          output.o
AUTHORITY_INFO_ACCESS_new                         output.o
AUTHORITY_KEYID_free                              output.o
AUTHORITY_KEYID_it                                output.o
AUTHORITY_KEYID_new                               output.o
AddCertDataByBuf                                  output.o
AddElem                                           output.o
AddIdPassDataByBuf                                output.o
AddObjTblByTlv                                    output.o
BASIC_CONSTRAINTS_free                            output.o
BASIC_CONSTRAINTS_it                              output.o
BASIC_CONSTRAINTS_new                             output.o
BF_cbc_encrypt                                    output.o
BF_cfb64_encrypt                                  output.o
BF_decrypt                                        output.o
BF_ecb_encrypt                                    output.o
BF_encrypt                                        output.o
BF_ofb64_encrypt                                  output.o
BF_options                                        output.o
BF_set_key                                        output.o
BF_version                                        output.o
BIGNUM_it                                         output.o
BIO_asn1_get_prefix                               output.o
BIO_asn1_get_suffix                               output.o
BIO_asn1_set_prefix                               output.o
BIO_asn1_set_suffix                               output.o
BIO_callback_ctrl                                 output.o
BIO_clear_flags                                   output.o
BIO_copy_next_retry                               output.o
BIO_ctrl                                          output.o
BIO_ctrl_pending                                  output.o
BIO_ctrl_wpending                                 output.o
BIO_dump                                          output.o
BIO_dump_cb                                       output.o
BIO_dump_indent                                   output.o
BIO_dump_indent_cb                                output.o
BIO_dup_chain                                     output.o
BIO_f_asn1                                        output.o
BIO_f_base64                                      output.o
BIO_f_buffer                                      output.o
BIO_f_cipher                                      output.o
BIO_f_md                                          output.o
BIO_find_type                                     output.o
BIO_free                                          output.o
BIO_free_all                                      output.o
BIO_get_callback                                  output.o
BIO_get_callback_arg                              output.o
BIO_get_ex_data                                   output.o
BIO_get_ex_new_index                              output.o
BIO_get_retry_BIO                                 output.o
BIO_get_retry_reason                              output.o
BIO_gets                                          output.o
BIO_indent                                        output.o
BIO_int_ctrl                                      output.o
BIO_method_name                                   output.o
BIO_method_type                                   output.o
BIO_new                                           output.o
BIO_new_CMS                                       output.o
BIO_new_NDEF                                      output.o
BIO_new_mem_buf                                   output.o
BIO_next                                          output.o
BIO_number_read                                   output.o
BIO_number_written                                output.o
BIO_pop                                           output.o
BIO_printf                                        output.o
BIO_ptr_ctrl                                      output.o
BIO_push                                          output.o
BIO_puts                                          output.o
BIO_read                                          output.o
BIO_s_mem                                         output.o
BIO_s_null                                        output.o
BIO_set                                           output.o
BIO_set_callback                                  output.o
BIO_set_callback_arg                              output.o
BIO_set_cipher                                    output.o
BIO_set_ex_data                                   output.o
BIO_set_flags                                     output.o
BIO_snprintf                                      output.o
BIO_test_flags                                    output.o
BIO_vfree                                         output.o
BIO_write                                         output.o
BN_BLINDING_convert                               output.o
BN_BLINDING_convert_ex                            output.o
BN_BLINDING_create_param                          output.o
BN_BLINDING_free                                  output.o
BN_BLINDING_get_flags                             output.o
BN_BLINDING_get_thread_id                         output.o
BN_BLINDING_invert                                output.o
BN_BLINDING_invert_ex                             output.o
BN_BLINDING_new                                   output.o
BN_BLINDING_set_flags                             output.o
BN_BLINDING_set_thread_id                         output.o
BN_BLINDING_thread_id                             output.o
BN_BLINDING_update                                output.o
BN_CTX_end                                        output.o
BN_CTX_free                                       output.o
BN_CTX_get                                        output.o
BN_CTX_init                                       output.o
BN_CTX_new                                        output.o
BN_CTX_start                                      output.o
BN_GENCB_call                                     output.o
BN_GF2m_add                                       output.o
BN_GF2m_arr2poly                                  output.o
BN_GF2m_mod                                       output.o
BN_GF2m_mod_arr                                   output.o
BN_GF2m_mod_div                                   output.o
BN_GF2m_mod_div_arr                               output.o
BN_GF2m_mod_exp                                   output.o
BN_GF2m_mod_exp_arr                               output.o
BN_GF2m_mod_inv                                   output.o
BN_GF2m_mod_inv_arr                               output.o
BN_GF2m_mod_mul                                   output.o
BN_GF2m_mod_mul_arr                               output.o
BN_GF2m_mod_solve_quad                            output.o
BN_GF2m_mod_solve_quad_arr                        output.o
BN_GF2m_mod_sqr                                   output.o
BN_GF2m_mod_sqr_arr                               output.o
BN_GF2m_mod_sqrt                                  output.o
BN_GF2m_mod_sqrt_arr                              output.o
BN_GF2m_poly2arr                                  output.o
BN_MONT_CTX_copy                                  output.o
BN_MONT_CTX_free                                  output.o
BN_MONT_CTX_init                                  output.o
BN_MONT_CTX_new                                   output.o
BN_MONT_CTX_set                                   output.o
BN_MONT_CTX_set_locked                            output.o
BN_RECP_CTX_free                                  output.o
BN_RECP_CTX_init                                  output.o
BN_RECP_CTX_new                                   output.o
BN_RECP_CTX_set                                   output.o
BN_add                                            output.o
BN_add_word                                       output.o
BN_asc2bn                                         output.o
BN_bin2bn                                         output.o
BN_bn2bin                                         output.o
BN_bn2dec                                         output.o
BN_bn2hex                                         output.o
BN_bntest_rand                                    output.o
BN_clear                                          output.o
BN_clear_bit                                      output.o
BN_clear_free                                     output.o
BN_cmp                                            output.o
BN_copy                                           output.o
BN_dec2bn                                         output.o
BN_div                                            output.o
BN_div_recp                                       output.o
BN_div_word                                       output.o
BN_dup                                            output.o
BN_exp                                            output.o
BN_free                                           output.o
BN_from_montgomery                                output.o
BN_gcd                                            output.o
BN_generate_prime_ex                              output.o
BN_get0_nist_prime_192                            output.o
BN_get0_nist_prime_224                            output.o
BN_get0_nist_prime_256                            output.o
BN_get0_nist_prime_384                            output.o
BN_get0_nist_prime_521                            output.o
BN_get_params                                     output.o
BN_get_word                                       output.o
BN_hex2bn                                         output.o
BN_init                                           output.o
BN_is_bit_set                                     output.o
BN_is_prime_ex                                    output.o
BN_is_prime_fasttest_ex                           output.o
BN_kronecker                                      output.o
BN_lshift                                         output.o
BN_lshift1                                        output.o
BN_mask_bits                                      output.o
BN_mod_add                                        output.o
BN_mod_add_quick                                  output.o
BN_mod_exp                                        output.o
BN_mod_exp2_mont                                  output.o
BN_mod_exp_mont                                   output.o
BN_mod_exp_mont_consttime                         output.o
BN_mod_exp_mont_word                              output.o
BN_mod_exp_recp                                   output.o
BN_mod_exp_simple                                 output.o
BN_mod_inverse                                    output.o
BN_mod_lshift                                     output.o
BN_mod_lshift1                                    output.o
BN_mod_lshift1_quick                              output.o
BN_mod_lshift_quick                               output.o
BN_mod_mul                                        output.o
BN_mod_mul_montgomery                             output.o
BN_mod_mul_reciprocal                             output.o
BN_mod_sqr                                        output.o
BN_mod_sqrt                                       output.o
BN_mod_sub                                        output.o
BN_mod_sub_quick                                  output.o
BN_mod_word                                       output.o
BN_mul                                            output.o
BN_mul_word                                       output.o
BN_new                                            output.o
BN_nist_mod_192                                   output.o
BN_nist_mod_224                                   output.o
BN_nist_mod_256                                   output.o
BN_nist_mod_384                                   output.o
BN_nist_mod_521                                   output.o
BN_nnmod                                          output.o
BN_num_bits                                       output.o
BN_num_bits_word                                  output.o
BN_options                                        output.o
BN_print                                          output.o
BN_pseudo_rand                                    output.o
BN_pseudo_rand_range                              output.o
BN_rand                                           output.o
BN_rand_range                                     output.o
BN_reciprocal                                     output.o
BN_rshift                                         output.o
BN_rshift1                                        output.o
BN_set_bit                                        output.o
BN_set_negative                                   output.o
BN_set_params                                     output.o
BN_set_word                                       output.o
BN_sqr                                            output.o
BN_sub                                            output.o
BN_sub_word                                       output.o
BN_swap                                           output.o
BN_to_ASN1_ENUMERATED                             output.o
BN_to_ASN1_INTEGER                                output.o
BN_uadd                                           output.o
BN_ucmp                                           output.o
BN_usub                                           output.o
BN_value_one                                      output.o
BN_version                                        output.o
BUF_MEM_free                                      output.o
BUF_MEM_grow                                      output.o
BUF_MEM_grow_clean                                output.o
BUF_MEM_new                                       output.o
BUF_memdup                                        output.o
BUF_reverse                                       output.o
BUF_strdup                                        output.o
BUF_strlcat                                       output.o
BUF_strlcpy                                       output.o
BUF_strndup                                       output.o
BlockSendCardT1                                   output.o
CAST_S_table0                                     output.o
CAST_S_table1                                     output.o
CAST_S_table2                                     output.o
CAST_S_table3                                     output.o
CAST_S_table4                                     output.o
CAST_S_table5                                     output.o
CAST_S_table6                                     output.o
CAST_S_table7                                     output.o
CAST_cbc_encrypt                                  output.o
CAST_cfb64_encrypt                                output.o
CAST_decrypt                                      output.o
CAST_ecb_encrypt                                  output.o
CAST_encrypt                                      output.o
CAST_ofb64_encrypt                                output.o
CAST_set_key                                      output.o
CAST_version                                      output.o
CBIGNUM_it                                        output.o
CERTIFICATEPOLICIES_free                          output.o
CERTIFICATEPOLICIES_it                            output.o
CERTIFICATEPOLICIES_new                           output.o
CMS_Attributes_Sign_it                            output.o
CMS_Attributes_Verify_it                          output.o
CMS_AuthenticatedData_it                          output.o
CMS_CertificateChoices_it                         output.o
CMS_CompressedData_it                             output.o
CMS_ContentInfo_free                              output.o
CMS_ContentInfo_it                                output.o
CMS_ContentInfo_new                               output.o
CMS_ContentInfo_print_ctx                         output.o
CMS_DigestedData_it                               output.o
CMS_EncapsulatedContentInfo_it                    output.o
CMS_EncryptedContentInfo_it                       output.o
CMS_EncryptedData_it                              output.o
CMS_EncryptedData_set1_key                        output.o
CMS_EnvelopedData_create                          output.o
CMS_EnvelopedData_it                              output.o
CMS_IssuerAndSerialNumber_it                      output.o
CMS_KEKIdentifier_it                              output.o
CMS_KEKRecipientInfo_it                           output.o
CMS_KeyAgreeRecipientIdentifier_it                output.o
CMS_KeyAgreeRecipientInfo_it                      output.o
CMS_KeyTransRecipientInfo_it                      output.o
CMS_OriginatorIdentifierOrKey_it                  output.o
CMS_OriginatorInfo_it                             output.o
CMS_OriginatorPublicKey_it                        output.o
CMS_OtherCertificateFormat_it                     output.o
CMS_OtherKeyAttribute_it                          output.o
CMS_OtherRecipientInfo_it                         output.o
CMS_OtherRevocationInfoFormat_it                  output.o
CMS_PasswordRecipientInfo_it                      output.o
CMS_ReceiptRequest_it                             output.o
CMS_Receipt_it                                    output.o
CMS_ReceiptsFrom_it                               output.o
CMS_RecipientEncryptedKey_it                      output.o
CMS_RecipientInfo_decrypt                         output.o
CMS_RecipientInfo_it                              output.o
CMS_RecipientInfo_kekri_get0_id                   output.o
CMS_RecipientInfo_kekri_id_cmp                    output.o
CMS_RecipientInfo_ktri_cert_cmp                   output.o
CMS_RecipientInfo_ktri_get0_algs                  output.o
CMS_RecipientInfo_ktri_get0_signer_id             output.o
CMS_RecipientInfo_set0_key                        output.o
CMS_RecipientInfo_set0_pkey                       output.o
CMS_RecipientInfo_type                            output.o
CMS_RecipientKeyIdentifier_it                     output.o
CMS_RevocationInfoChoice_it                       output.o
CMS_SignedData_init                               output.o
CMS_SignedData_it                                 output.o
CMS_SignerIdentifier_it                           output.o
CMS_SignerInfo_cert_cmp                           output.o
CMS_SignerInfo_get0_algs                          output.o
CMS_SignerInfo_get0_signer_id                     output.o
CMS_SignerInfo_it                                 output.o
CMS_SignerInfo_set1_signer_cert                   output.o
CMS_SignerInfo_sign                               output.o
CMS_SignerInfo_verify                             output.o
CMS_SignerInfo_verify_content                     output.o
CMS_add0_CertificateChoices                       output.o
CMS_add0_RevocationInfoChoice                     output.o
CMS_add0_cert                                     output.o
CMS_add0_crl                                      output.o
CMS_add0_recipient_key                            output.o
CMS_add1_cert                                     output.o
CMS_add1_crl                                      output.o
CMS_add1_recipient_cert                           output.o
CMS_add1_signer                                   output.o
CMS_add_simple_smimecap                           output.o
CMS_add_smimecap                                  output.o
CMS_add_standard_smimecap                         output.o
CMS_dataFinal                                     output.o
CMS_dataInit                                      output.o
CMS_get0_RecipientInfos                           output.o
CMS_get0_SignerInfos                              output.o
CMS_get0_content                                  output.o
CMS_get0_eContentType                             output.o
CMS_get0_signers                                  output.o
CMS_get0_type                                     output.o
CMS_get1_certs                                    output.o
CMS_get1_crls                                     output.o
CMS_is_detached                                   output.o
CMS_set1_eContentType                             output.o
CMS_set1_signers_certs                            output.o
CMS_set_detached                                  output.o
CMS_signed_add1_attr                              output.o
CMS_signed_add1_attr_by_NID                       output.o
CMS_signed_add1_attr_by_OBJ                       output.o
CMS_signed_add1_attr_by_txt                       output.o
CMS_signed_delete_attr                            output.o
CMS_signed_get0_data_by_OBJ                       output.o
CMS_signed_get_attr                               output.o
CMS_signed_get_attr_by_NID                        output.o
CMS_signed_get_attr_by_OBJ                        output.o
CMS_signed_get_attr_count                         output.o
CMS_stream                                        output.o
CMS_unsigned_add1_attr                            output.o
CMS_unsigned_add1_attr_by_NID                     output.o
CMS_unsigned_add1_attr_by_OBJ                     output.o
CMS_unsigned_add1_attr_by_txt                     output.o
CMS_unsigned_delete_attr                          output.o
CMS_unsigned_get0_data_by_OBJ                     output.o
CMS_unsigned_get_attr                             output.o
CMS_unsigned_get_attr_by_NID                      output.o
CMS_unsigned_get_attr_by_OBJ                      output.o
CMS_unsigned_get_attr_count                       output.o
CONF_def_version                                  output.o
CONF_dump_bio                                     output.o
CONF_free                                         output.o
CONF_get1_default_config_file                     output.o
CONF_get_number                                   output.o
CONF_get_section                                  output.o
CONF_get_string                                   output.o
CONF_imodule_get_flags                            output.o
CONF_imodule_get_module                           output.o
CONF_imodule_get_name                             output.o
CONF_imodule_get_usr_data                         output.o
CONF_imodule_get_value                            output.o
CONF_imodule_set_flags                            output.o
CONF_imodule_set_usr_data                         output.o
CONF_load                                         output.o
CONF_load_bio                                     output.o
CONF_module_add                                   output.o
CONF_module_get_usr_data                          output.o
CONF_module_set_usr_data                          output.o
CONF_modules_finish                               output.o
CONF_modules_free                                 output.o
CONF_modules_load                                 output.o
CONF_modules_load_file                            output.o
CONF_modules_unload                               output.o
CONF_parse_list                                   output.o
CONF_set_default_method                           output.o
CONF_set_nconf                                    output.o
CONF_version                                      output.o
CRL_DIST_POINTS_free                              output.o
CRL_DIST_POINTS_it                                output.o
CRL_DIST_POINTS_new                               output.o
CRYPTO_THREADID_cmp                               output.o
CRYPTO_THREADID_cpy                               output.o
CRYPTO_THREADID_current                           output.o
CRYPTO_THREADID_get_callback                      output.o
CRYPTO_THREADID_hash                              output.o
CRYPTO_THREADID_set_callback                      output.o
CRYPTO_THREADID_set_numeric                       output.o
CRYPTO_THREADID_set_pointer                       output.o
CRYPTO_add_lock                                   output.o
CRYPTO_cbc128_decrypt                             output.o
CRYPTO_cbc128_encrypt                             output.o
CRYPTO_cfb128_1_encrypt                           output.o
CRYPTO_cfb128_8_encrypt                           output.o
CRYPTO_cfb128_encrypt                             output.o
CRYPTO_cleanup_all_ex_data                        output.o
CRYPTO_dbg_free                                   output.o
CRYPTO_dbg_get_options                            output.o
CRYPTO_dbg_malloc                                 output.o
CRYPTO_dbg_realloc                                output.o
CRYPTO_dbg_set_options                            output.o
CRYPTO_destroy_dynlockid                          output.o
CRYPTO_dup_ex_data                                output.o
CRYPTO_ex_data_new_class                          output.o
CRYPTO_free                                       output.o
CRYPTO_free_ex_data                               output.o
CRYPTO_free_locked                                output.o
CRYPTO_get_add_lock_callback                      output.o
CRYPTO_get_dynlock_create_callback                output.o
CRYPTO_get_dynlock_destroy_callback               output.o
CRYPTO_get_dynlock_lock_callback                  output.o
CRYPTO_get_dynlock_value                          output.o
CRYPTO_get_ex_data                                output.o
CRYPTO_get_ex_data_implementation                 output.o
CRYPTO_get_ex_new_index                           output.o
CRYPTO_get_id_callback                            output.o
CRYPTO_get_lock_name                              output.o
CRYPTO_get_locked_mem_ex_functions                output.o
CRYPTO_get_locked_mem_functions                   output.o
CRYPTO_get_locking_callback                       output.o
CRYPTO_get_mem_debug_functions                    output.o
CRYPTO_get_mem_debug_options                      output.o
CRYPTO_get_mem_ex_functions                       output.o
CRYPTO_get_mem_functions                          output.o
CRYPTO_get_new_dynlockid                          output.o
CRYPTO_get_new_lockid                             output.o
CRYPTO_is_mem_check_on                            output.o
CRYPTO_lock                                       output.o
CRYPTO_malloc                                     output.o
CRYPTO_malloc_locked                              output.o
CRYPTO_mem_ctrl                                   output.o
CRYPTO_mem_leaks                                  output.o
CRYPTO_mem_leaks_cb                               output.o
CRYPTO_memcmp                                     output.o
CRYPTO_new_ex_data                                output.o
CRYPTO_num_locks                                  output.o
CRYPTO_ofb128_encrypt                             output.o
CRYPTO_pop_info                                   output.o
CRYPTO_push_info_                                 output.o
CRYPTO_realloc                                    output.o
CRYPTO_realloc_clean                              output.o
CRYPTO_remalloc                                   output.o
CRYPTO_remove_all_info                            output.o
CRYPTO_set_add_lock_callback                      output.o
CRYPTO_set_dynlock_create_callback                output.o
CRYPTO_set_dynlock_destroy_callback               output.o
CRYPTO_set_dynlock_lock_callback                  output.o
CRYPTO_set_ex_data                                output.o
CRYPTO_set_ex_data_implementation                 output.o
CRYPTO_set_id_callback                            output.o
CRYPTO_set_locked_mem_ex_functions                output.o
CRYPTO_set_locked_mem_functions                   output.o
CRYPTO_set_locking_callback                       output.o
CRYPTO_set_mem_debug_functions                    output.o
CRYPTO_set_mem_debug_options                      output.o
CRYPTO_set_mem_ex_functions                       output.o
CRYPTO_set_mem_functions                          output.o
CRYPTO_strdup                                     output.o
CRYPTO_thread_id                                  output.o
C_CloseAllSessions                                output.o
C_CloseSession                                    output.o
C_CreateObject                                    output.o
C_DestroyObject                                   output.o
C_DigestFinal                                     output.o
C_DigestInit                                      output.o
C_DigestUpdate                                    output.o
C_Finalize                                        output.o
C_FindObjects                                     output.o
C_FindObjectsFinal                                output.o
C_FindObjectsInit                                 output.o
C_GetAttributeValue                               output.o
C_GetCardStatus                                   output.o
C_GetFunctionList                                 output.o
C_GetInfo                                         output.o
C_GetMechanismInfo                                output.o
C_GetMechanismList                                output.o
C_GetSessionInfo                                  output.o
C_GetSlotInfo                                     output.o
C_GetSlotList                                     output.o
C_GetTokenInfo                                    output.o
C_Initialize                                      output.o
C_Login                                           output.o
C_Logout                                          output.o
C_OpenSession                                     output.o
C_SetAttributeValue                               output.o
C_Sign                                            output.o
C_SignInit                                        output.o
C_Verify                                          output.o
C_VerifyInit                                      output.o
CardConnect                                       output.o
CardDisconnect                                    output.o
CardEstablishContext                              output.o
CardListReaders                                   output.o
CardMechanical                                    output.o
CardReleaseContext                                output.o
CardStateConfirm                                  output.o
CardStatus                                        output.o
CardTransmit                                      output.o
CloseUSB                                          output.o
DES_SPtrans                                       output.o
DES_cfb64_encrypt                                 output.o
DES_cfb_encrypt                                   output.o
DES_check_key_parity                              output.o
DES_decrypt3                                      output.o
DES_ecb3_encrypt                                  output.o
DES_ecb_encrypt                                   output.o
DES_ede3_cbc_encrypt                              output.o
DES_ede3_cfb64_encrypt                            output.o
DES_ede3_cfb_encrypt                              output.o
DES_ede3_ofb64_encrypt                            output.o
DES_encrypt1                                      output.o
DES_encrypt2                                      output.o
DES_encrypt3                                      output.o
DES_is_weak_key                                   output.o
DES_key_sched                                     output.o
DES_ncbc_encrypt                                  output.o
DES_ofb64_encrypt                                 output.o
DES_options                                       output.o
DES_random_key                                    output.o
DES_set_key                                       output.o
DES_set_key_checked                               output.o
DES_set_key_unchecked                             output.o
DES_set_odd_parity                                output.o
DES_xcbc_encrypt                                  output.o
DH_OpenSSL                                        output.o
DH_check                                          output.o
DH_check_pub_key                                  output.o
DH_compute_key                                    output.o
DH_free                                           output.o
DH_generate_key                                   output.o
DH_generate_parameters_ex                         output.o
DH_get_default_method                             output.o
DH_get_ex_data                                    output.o
DH_get_ex_new_index                               output.o
DH_new                                            output.o
DH_new_method                                     output.o
DH_set_default_method                             output.o
DH_set_ex_data                                    output.o
DH_set_method                                     output.o
DH_size                                           output.o
DH_up_ref                                         output.o
DH_version                                        output.o
DHparams_dup                                      output.o
DHparams_it                                       output.o
DHparams_print                                    output.o
DI                                                output.o
DIRECTORYSTRING_free                              output.o
DIRECTORYSTRING_it                                output.o
DIRECTORYSTRING_new                               output.o
DISPLAYTEXT_free                                  output.o
DISPLAYTEXT_it                                    output.o
DISPLAYTEXT_new                                   output.o
DIST_POINT_NAME_free                              output.o
DIST_POINT_NAME_it                                output.o
DIST_POINT_NAME_new                               output.o
DIST_POINT_free                                   output.o
DIST_POINT_it                                     output.o
DIST_POINT_new                                    output.o
DIST_POINT_set_dpname                             output.o
DSAPrivateKey_it                                  output.o
DSAPublicKey_it                                   output.o
DSA_OpenSSL                                       output.o
DSA_SIG_free                                      output.o
DSA_SIG_it                                        output.o
DSA_SIG_new                                       output.o
DSA_do_sign                                       output.o
DSA_do_verify                                     output.o
DSA_dup_DH                                        output.o
DSA_free                                          output.o
DSA_generate_key                                  output.o
DSA_generate_parameters_ex                        output.o
DSA_get_default_method                            output.o
DSA_get_ex_data                                   output.o
DSA_get_ex_new_index                              output.o
DSA_new                                           output.o
DSA_new_method                                    output.o
DSA_set_default_method                            output.o
DSA_set_ex_data                                   output.o
DSA_set_method                                    output.o
DSA_sign                                          output.o
DSA_sign_setup                                    output.o
DSA_size                                          output.o
DSA_up_ref                                        output.o
DSA_verify                                        output.o
DSA_version                                       output.o
DSAparams_dup                                     output.o
DSAparams_it                                      output.o
DSO_METHOD_null                                   output.o
DSO_METHOD_openssl                                output.o
DSO_bind_func                                     output.o
DSO_bind_var                                      output.o
DSO_convert_filename                              output.o
DSO_ctrl                                          output.o
DSO_flags                                         output.o
DSO_free                                          output.o
DSO_get_default_method                            output.o
DSO_get_filename                                  output.o
DSO_get_loaded_filename                           output.o
DSO_get_method                                    output.o
DSO_global_lookup                                 output.o
DSO_load                                          output.o
DSO_merge                                         output.o
DSO_new                                           output.o
DSO_new_method                                    output.o
DSO_pathbyaddr                                    output.o
DSO_set_default_method                            output.o
DSO_set_filename                                  output.o
DSO_set_method                                    output.o
DSO_set_name_converter                            output.o
DSO_up_ref                                        output.o
DelElem                                           output.o
DestroyAttribute                                  output.o
DestroyElem                                       output.o
DestroyList                                       output.o
DestroySessionData                                output.o
DestroySlotData                                   output.o
DestroyTlvData                                    output.o
DestroyTokenData                                  output.o
ECDH_OpenSSL                                      output.o
ECDH_compute_key                                  output.o
ECDH_get_default_method                           output.o
ECDH_get_ex_data                                  output.o
ECDH_get_ex_new_index                             output.o
ECDH_set_default_method                           output.o
ECDH_set_ex_data                                  output.o
ECDH_set_method                                   output.o
ECDH_version                                      output.o
ECDSA_OpenSSL                                     output.o
ECDSA_SIG_free                                    output.o
ECDSA_SIG_it                                      output.o
ECDSA_SIG_new                                     output.o
ECDSA_do_sign                                     output.o
ECDSA_do_sign_ex                                  output.o
ECDSA_do_verify                                   output.o
ECDSA_get_default_method                          output.o
ECDSA_get_ex_data                                 output.o
ECDSA_get_ex_new_index                            output.o
ECDSA_set_default_method                          output.o
ECDSA_set_ex_data                                 output.o
ECDSA_set_method                                  output.o
ECDSA_sign                                        output.o
ECDSA_sign_ex                                     output.o
ECDSA_sign_setup                                  output.o
ECDSA_size                                        output.o
ECDSA_verify                                      output.o
ECDSA_version                                     output.o
ECPARAMETERS_free                                 output.o
ECPARAMETERS_it                                   output.o
ECPARAMETERS_new                                  output.o
ECPKPARAMETERS_free                               output.o
ECPKPARAMETERS_it                                 output.o
ECPKPARAMETERS_new                                output.o
ECPKParameters_print                              output.o
ECParameters_print                                output.o
EC_EX_DATA_clear_free_all_data                    output.o
EC_EX_DATA_clear_free_data                        output.o
EC_EX_DATA_free_all_data                          output.o
EC_EX_DATA_free_data                              output.o
EC_EX_DATA_get_data                               output.o
EC_EX_DATA_set_data                               output.o
EC_GF2m_simple_method                             output.o
EC_GFp_mont_method                                output.o
EC_GFp_nist_method                                output.o
EC_GFp_simple_method                              output.o
EC_GROUP_check_discriminant                       output.o
EC_GROUP_clear_free                               output.o
EC_GROUP_cmp                                      output.o
EC_GROUP_copy                                     output.o
EC_GROUP_dup                                      output.o
EC_GROUP_free                                     output.o
EC_GROUP_get0_generator                           output.o
EC_GROUP_get0_seed                                output.o
EC_GROUP_get_asn1_flag                            output.o
EC_GROUP_get_basis_type                           output.o
EC_GROUP_get_cofactor                             output.o
EC_GROUP_get_curve_GF2m                           output.o
EC_GROUP_get_curve_GFp                            output.o
EC_GROUP_get_curve_name                           output.o
EC_GROUP_get_degree                               output.o
EC_GROUP_get_order                                output.o
EC_GROUP_get_pentanomial_basis                    output.o
EC_GROUP_get_point_conversion_form                output.o
EC_GROUP_get_seed_len                             output.o
EC_GROUP_get_trinomial_basis                      output.o
EC_GROUP_have_precompute_mult                     output.o
EC_GROUP_method_of                                output.o
EC_GROUP_new                                      output.o
EC_GROUP_new_by_curve_name                        output.o
EC_GROUP_new_curve_GF2m                           output.o
EC_GROUP_new_curve_GFp                            output.o
EC_GROUP_precompute_mult                          output.o
EC_GROUP_set_asn1_flag                            output.o
EC_GROUP_set_curve_GF2m                           output.o
EC_GROUP_set_curve_GFp                            output.o
EC_GROUP_set_curve_name                           output.o
EC_GROUP_set_generator                            output.o
EC_GROUP_set_point_conversion_form                output.o
EC_GROUP_set_seed                                 output.o
EC_KEY_check_key                                  output.o
EC_KEY_copy                                       output.o
EC_KEY_dup                                        output.o
EC_KEY_free                                       output.o
EC_KEY_generate_key                               output.o
EC_KEY_get0_group                                 output.o
EC_KEY_get0_private_key                           output.o
EC_KEY_get0_public_key                            output.o
EC_KEY_get_conv_form                              output.o
EC_KEY_get_enc_flags                              output.o
EC_KEY_get_key_method_data                        output.o
EC_KEY_insert_key_method_data                     output.o
EC_KEY_new                                        output.o
EC_KEY_new_by_curve_name                          output.o
EC_KEY_precompute_mult                            output.o
EC_KEY_print                                      output.o
EC_KEY_set_asn1_flag                              output.o
EC_KEY_set_conv_form                              output.o
EC_KEY_set_enc_flags                              output.o
EC_KEY_set_group                                  output.o
EC_KEY_set_private_key                            output.o
EC_KEY_set_public_key                             output.o
EC_KEY_up_ref                                     output.o
EC_METHOD_get_field_type                          output.o
EC_POINT_add                                      output.o
EC_POINT_bn2point                                 output.o
EC_POINT_clear_free                               output.o
EC_POINT_cmp                                      output.o
EC_POINT_copy                                     output.o
EC_POINT_dbl                                      output.o
EC_POINT_dup                                      output.o
EC_POINT_free                                     output.o
EC_POINT_get_Jprojective_coordinates_GFp          output.o
EC_POINT_get_affine_coordinates_GF2m              output.o
EC_POINT_get_affine_coordinates_GFp               output.o
EC_POINT_hex2point                                output.o
EC_POINT_invert                                   output.o
EC_POINT_is_at_infinity                           output.o
EC_POINT_is_on_curve                              output.o
EC_POINT_make_affine                              output.o
EC_POINT_method_of                                output.o
EC_POINT_mul                                      output.o
EC_POINT_new                                      output.o
EC_POINT_oct2point                                output.o
EC_POINT_point2bn                                 output.o
EC_POINT_point2hex                                output.o
EC_POINT_point2oct                                output.o
EC_POINT_set_Jprojective_coordinates_GFp          output.o
EC_POINT_set_affine_coordinates_GF2m              output.o
EC_POINT_set_affine_coordinates_GFp               output.o
EC_POINT_set_compressed_coordinates_GF2m          output.o
EC_POINT_set_compressed_coordinates_GFp           output.o
EC_POINT_set_to_infinity                          output.o
EC_POINTs_make_affine                             output.o
EC_POINTs_mul                                     output.o
EC_PRIVATEKEY_free                                output.o
EC_PRIVATEKEY_it                                  output.o
EC_PRIVATEKEY_new                                 output.o
EC_get_builtin_curves                             output.o
EDIPARTYNAME_free                                 output.o
EDIPARTYNAME_it                                   output.o
EDIPARTYNAME_new                                  output.o
EHDestroyEventHandler                             output.o
EHInitEventHandler                                output.o
EHStatusHandler                                   output.o
ERR_add_error_data                                output.o
ERR_clear_error                                   output.o
ERR_error_string                                  output.o
ERR_error_string_n                                output.o
ERR_free_strings                                  output.o
ERR_func_error_string                             output.o
ERR_get_err_state_table                           output.o
ERR_get_error                                     output.o
ERR_get_error_line                                output.o
ERR_get_error_line_data                           output.o
ERR_get_implementation                            output.o
ERR_get_next_error_library                        output.o
ERR_get_state                                     output.o
ERR_get_string_table                              output.o
ERR_lib_error_string                              output.o
ERR_load_ASN1_strings                             output.o
ERR_load_BIO_strings                              output.o
ERR_load_BN_strings                               output.o
ERR_load_BUF_strings                              output.o
ERR_load_CMS_strings                              output.o
ERR_load_COMP_strings                             output.o
ERR_load_CONF_strings                             output.o
ERR_load_CRYPTO_strings                           output.o
ERR_load_DH_strings                               output.o
ERR_load_DSA_strings                              output.o
ERR_load_DSO_strings                              output.o
ERR_load_ECDH_strings                             output.o
ERR_load_ECDSA_strings                            output.o
ERR_load_EC_strings                               output.o
ERR_load_ERR_strings                              output.o
ERR_load_EVP_strings                              output.o
ERR_load_OBJ_strings                              output.o
ERR_load_OCSP_strings                             output.o
ERR_load_PEM_strings                              output.o
ERR_load_PKCS12_strings                           output.o
ERR_load_PKCS7_strings                            output.o
ERR_load_RAND_strings                             output.o
ERR_load_RSA_strings                              output.o
ERR_load_TS_strings                               output.o
ERR_load_UI_strings                               output.o
ERR_load_X509V3_strings                           output.o
ERR_load_X509_strings                             output.o
ERR_load_crypto_strings                           output.o
ERR_load_strings                                  output.o
ERR_peek_error                                    output.o
ERR_peek_error_line                               output.o
ERR_peek_error_line_data                          output.o
ERR_peek_last_error                               output.o
ERR_peek_last_error_line                          output.o
ERR_peek_last_error_line_data                     output.o
ERR_pop_to_mark                                   output.o
ERR_print_errors                                  output.o
ERR_print_errors_cb                               output.o
ERR_put_error                                     output.o
ERR_reason_error_string                           output.o
ERR_release_err_state_table                       output.o
ERR_remove_state                                  output.o
ERR_remove_thread_state                           output.o
ERR_set_error_data                                output.o
ERR_set_implementation                            output.o
ERR_set_mark                                      output.o
ERR_unload_strings                                output.o
EVP_BytesToKey                                    output.o
EVP_CIPHER_CTX_block_size                         output.o
EVP_CIPHER_CTX_cipher                             output.o
EVP_CIPHER_CTX_cleanup                            output.o
EVP_CIPHER_CTX_clear_flags                        output.o
EVP_CIPHER_CTX_copy                               output.o
EVP_CIPHER_CTX_ctrl                               output.o
EVP_CIPHER_CTX_flags                              output.o
EVP_CIPHER_CTX_free                               output.o
EVP_CIPHER_CTX_get_app_data                       output.o
EVP_CIPHER_CTX_init                               output.o
EVP_CIPHER_CTX_iv_length                          output.o
EVP_CIPHER_CTX_key_length                         output.o
EVP_CIPHER_CTX_new                                output.o
EVP_CIPHER_CTX_nid                                output.o
EVP_CIPHER_CTX_rand_key                           output.o
EVP_CIPHER_CTX_set_app_data                       output.o
EVP_CIPHER_CTX_set_flags                          output.o
EVP_CIPHER_CTX_set_key_length                     output.o
EVP_CIPHER_CTX_set_padding                        output.o
EVP_CIPHER_CTX_test_flags                         output.o
EVP_CIPHER_asn1_to_param                          output.o
EVP_CIPHER_block_size                             output.o
EVP_CIPHER_do_all                                 output.o
EVP_CIPHER_do_all_sorted                          output.o
EVP_CIPHER_flags                                  output.o
EVP_CIPHER_get_asn1_iv                            output.o
EVP_CIPHER_iv_length                              output.o
EVP_CIPHER_key_length                             output.o
EVP_CIPHER_nid                                    output.o
EVP_CIPHER_param_to_asn1                          output.o
EVP_CIPHER_set_asn1_iv                            output.o
EVP_CIPHER_type                                   output.o
EVP_Cipher                                        output.o
EVP_CipherFinal                                   output.o
EVP_CipherFinal_ex                                output.o
EVP_CipherInit                                    output.o
EVP_CipherInit_ex                                 output.o
EVP_CipherUpdate                                  output.o
EVP_DecodeBlock                                   output.o
EVP_DecodeFinal                                   output.o
EVP_DecodeInit                                    output.o
EVP_DecodeUpdate                                  output.o
EVP_DecryptFinal                                  output.o
EVP_DecryptFinal_ex                               output.o
EVP_DecryptInit                                   output.o
EVP_DecryptInit_ex                                output.o
EVP_DecryptUpdate                                 output.o
EVP_Digest                                        output.o
EVP_DigestFinal                                   output.o
EVP_DigestFinal_ex                                output.o
EVP_DigestInit                                    output.o
EVP_DigestInit_ex                                 output.o
EVP_DigestSignFinal                               output.o
EVP_DigestSignInit                                output.o
EVP_DigestUpdate                                  output.o
EVP_DigestVerifyFinal                             output.o
EVP_DigestVerifyInit                              output.o
EVP_EncodeBlock                                   output.o
EVP_EncodeFinal                                   output.o
EVP_EncodeInit                                    output.o
EVP_EncodeUpdate                                  output.o
EVP_EncryptFinal                                  output.o
EVP_EncryptFinal_ex                               output.o
EVP_EncryptInit                                   output.o
EVP_EncryptInit_ex                                output.o
EVP_EncryptUpdate                                 output.o
EVP_MD_CTX_cleanup                                output.o
EVP_MD_CTX_clear_flags                            output.o
EVP_MD_CTX_copy                                   output.o
EVP_MD_CTX_copy_ex                                output.o
EVP_MD_CTX_create                                 output.o
EVP_MD_CTX_destroy                                output.o
EVP_MD_CTX_init                                   output.o
EVP_MD_CTX_md                                     output.o
EVP_MD_CTX_set_flags                              output.o
EVP_MD_CTX_test_flags                             output.o
EVP_MD_block_size                                 output.o
EVP_MD_do_all                                     output.o
EVP_MD_do_all_sorted                              output.o
EVP_MD_flags                                      output.o
EVP_MD_pkey_type                                  output.o
EVP_MD_size                                       output.o
EVP_MD_type                                       output.o
EVP_PBE_CipherInit                                output.o
EVP_PBE_alg_add                                   output.o
EVP_PBE_alg_add_type                              output.o
EVP_PBE_cleanup                                   output.o
EVP_PBE_find                                      output.o
EVP_PKCS82PKEY                                    output.o
EVP_PKEY2PKCS8                                    output.o
EVP_PKEY2PKCS8_broken                             output.o
EVP_PKEY_CTX_ctrl                                 output.o
EVP_PKEY_CTX_ctrl_str                             output.o
EVP_PKEY_CTX_dup                                  output.o
EVP_PKEY_CTX_free                                 output.o
EVP_PKEY_CTX_get0_peerkey                         output.o
EVP_PKEY_CTX_get0_pkey                            output.o
EVP_PKEY_CTX_get_app_data                         output.o
EVP_PKEY_CTX_get_cb                               output.o
EVP_PKEY_CTX_get_data                             output.o
EVP_PKEY_CTX_get_keygen_info                      output.o
EVP_PKEY_CTX_get_operation                        output.o
EVP_PKEY_CTX_new                                  output.o
EVP_PKEY_CTX_new_id                               output.o
EVP_PKEY_CTX_set0_keygen_info                     output.o
EVP_PKEY_CTX_set_app_data                         output.o
EVP_PKEY_CTX_set_cb                               output.o
EVP_PKEY_CTX_set_data                             output.o
EVP_PKEY_add1_attr                                output.o
EVP_PKEY_add1_attr_by_NID                         output.o
EVP_PKEY_add1_attr_by_OBJ                         output.o
EVP_PKEY_add1_attr_by_txt                         output.o
EVP_PKEY_asn1_add0                                output.o
EVP_PKEY_asn1_add_alias                           output.o
EVP_PKEY_asn1_copy                                output.o
EVP_PKEY_asn1_find                                output.o
EVP_PKEY_asn1_find_str                            output.o
EVP_PKEY_asn1_free                                output.o
EVP_PKEY_asn1_get0                                output.o
EVP_PKEY_asn1_get0_info                           output.o
EVP_PKEY_asn1_get_count                           output.o
EVP_PKEY_asn1_new                                 output.o
EVP_PKEY_asn1_set_ctrl                            output.o
EVP_PKEY_asn1_set_free                            output.o
EVP_PKEY_asn1_set_param                           output.o
EVP_PKEY_asn1_set_private                         output.o
EVP_PKEY_asn1_set_public                          output.o
EVP_PKEY_assign                                   output.o
EVP_PKEY_base_id                                  output.o
EVP_PKEY_bits                                     output.o
EVP_PKEY_cmp                                      output.o
EVP_PKEY_cmp_parameters                           output.o
EVP_PKEY_copy_parameters                          output.o
EVP_PKEY_decrypt                                  output.o
EVP_PKEY_decrypt_init                             output.o
EVP_PKEY_delete_attr                              output.o
EVP_PKEY_derive                                   output.o
EVP_PKEY_derive_init                              output.o
EVP_PKEY_derive_set_peer                          output.o
EVP_PKEY_encrypt                                  output.o
EVP_PKEY_encrypt_init                             output.o
EVP_PKEY_free                                     output.o
EVP_PKEY_get0                                     output.o
EVP_PKEY_get0_asn1                                output.o
EVP_PKEY_get1_DH                                  output.o
EVP_PKEY_get1_DSA                                 output.o
EVP_PKEY_get1_EC_KEY                              output.o
EVP_PKEY_get1_RSA                                 output.o
EVP_PKEY_get_attr                                 output.o
EVP_PKEY_get_attr_by_NID                          output.o
EVP_PKEY_get_attr_by_OBJ                          output.o
EVP_PKEY_get_attr_count                           output.o
EVP_PKEY_get_default_digest_nid                   output.o
EVP_PKEY_id                                       output.o
EVP_PKEY_keygen                                   output.o
EVP_PKEY_keygen_init                              output.o
EVP_PKEY_meth_add0                                output.o
EVP_PKEY_meth_find                                output.o
EVP_PKEY_meth_free                                output.o
EVP_PKEY_meth_new                                 output.o
EVP_PKEY_meth_set_cleanup                         output.o
EVP_PKEY_meth_set_copy                            output.o
EVP_PKEY_meth_set_ctrl                            output.o
EVP_PKEY_meth_set_decrypt                         output.o
EVP_PKEY_meth_set_derive                          output.o
EVP_PKEY_meth_set_encrypt                         output.o
EVP_PKEY_meth_set_init                            output.o
EVP_PKEY_meth_set_keygen                          output.o
EVP_PKEY_meth_set_paramgen                        output.o
EVP_PKEY_meth_set_sign                            output.o
EVP_PKEY_meth_set_signctx                         output.o
EVP_PKEY_meth_set_verify                          output.o
EVP_PKEY_meth_set_verify_recover                  output.o
EVP_PKEY_meth_set_verifyctx                       output.o
EVP_PKEY_missing_parameters                       output.o
EVP_PKEY_new                                      output.o
EVP_PKEY_new_mac_key                              output.o
EVP_PKEY_paramgen                                 output.o
EVP_PKEY_paramgen_init                            output.o
EVP_PKEY_print_params                             output.o
EVP_PKEY_print_private                            output.o
EVP_PKEY_print_public                             output.o
EVP_PKEY_save_parameters                          output.o
EVP_PKEY_set1_DH                                  output.o
EVP_PKEY_set1_DSA                                 output.o
EVP_PKEY_set1_EC_KEY                              output.o
EVP_PKEY_set1_RSA                                 output.o
EVP_PKEY_set_type                                 output.o
EVP_PKEY_set_type_str                             output.o
EVP_PKEY_sign                                     output.o
EVP_PKEY_sign_init                                output.o
EVP_PKEY_size                                     output.o
EVP_PKEY_type                                     output.o
EVP_PKEY_verify                                   output.o
EVP_PKEY_verify_init                              output.o
EVP_PKEY_verify_recover                           output.o
EVP_PKEY_verify_recover_init                      output.o
EVP_SignFinal                                     output.o
EVP_VerifyFinal                                   output.o
EVP_add_cipher                                    output.o
EVP_add_digest                                    output.o
EVP_aes_128_cbc                                   output.o
EVP_aes_128_cfb1                                  output.o
EVP_aes_128_cfb128                                output.o
EVP_aes_128_cfb8                                  output.o
EVP_aes_128_ecb                                   output.o
EVP_aes_128_ofb                                   output.o
EVP_aes_192_cbc                                   output.o
EVP_aes_192_cfb1                                  output.o
EVP_aes_192_cfb128                                output.o
EVP_aes_192_cfb8                                  output.o
EVP_aes_192_ecb                                   output.o
EVP_aes_192_ofb                                   output.o
EVP_aes_256_cbc                                   output.o
EVP_aes_256_cfb1                                  output.o
EVP_aes_256_cfb128                                output.o
EVP_aes_256_cfb8                                  output.o
EVP_aes_256_ecb                                   output.o
EVP_aes_256_ofb                                   output.o
EVP_bf_cbc                                        output.o
EVP_bf_cfb64                                      output.o
EVP_bf_ecb                                        output.o
EVP_bf_ofb                                        output.o
EVP_cast5_cbc                                     output.o
EVP_cast5_cfb64                                   output.o
EVP_cast5_ecb                                     output.o
EVP_cast5_ofb                                     output.o
EVP_cleanup                                       output.o
EVP_des_cbc                                       output.o
EVP_des_cfb1                                      output.o
EVP_des_cfb64                                     output.o
EVP_des_cfb8                                      output.o
EVP_des_ecb                                       output.o
EVP_des_ede                                       output.o
EVP_des_ede3                                      output.o
EVP_des_ede3_cbc                                  output.o
EVP_des_ede3_cfb1                                 output.o
EVP_des_ede3_cfb64                                output.o
EVP_des_ede3_cfb8                                 output.o
EVP_des_ede3_ecb                                  output.o
EVP_des_ede3_ofb                                  output.o
EVP_des_ede_cbc                                   output.o
EVP_des_ede_cfb64                                 output.o
EVP_des_ede_ecb                                   output.o
EVP_des_ede_ofb                                   output.o
EVP_des_ofb                                       output.o
EVP_desx_cbc                                      output.o
EVP_dss                                           output.o
EVP_dss1                                          output.o
EVP_ecdsa                                         output.o
EVP_get_cipherbyname                              output.o
EVP_get_digestbyname                              output.o
EVP_get_pw_prompt                                 output.o
EVP_idea_cbc                                      output.o
EVP_idea_cfb64                                    output.o
EVP_idea_ecb                                      output.o
EVP_idea_ofb                                      output.o
EVP_md4                                           output.o
EVP_md5                                           output.o
EVP_rc2_40_cbc                                    output.o
EVP_rc2_64_cbc                                    output.o
EVP_rc2_cbc                                       output.o
EVP_rc2_cfb64                                     output.o
EVP_rc2_ecb                                       output.o
EVP_rc2_ofb                                       output.o
EVP_rc4                                           output.o
EVP_rc4_40                                        output.o
EVP_read_pw_string                                output.o
EVP_read_pw_string_min                            output.o
EVP_ripemd160                                     output.o
EVP_set_pw_prompt                                 output.o
EVP_sha                                           output.o
EVP_sha1                                          output.o
EVP_sha224                                        output.o
EVP_sha256                                        output.o
EVP_sha384                                        output.o
EVP_sha512                                        output.o
EVP_version                                       output.o
EVP_whirlpool                                     output.o
EXTENDED_KEY_USAGE_free                           output.o
EXTENDED_KEY_USAGE_it                             output.o
EXTENDED_KEY_USAGE_new                            output.o
ExchangePPSData                                   output.o
FI                                                output.o
FindBaudRateTable                                 output.o
GENERAL_NAMES_free                                output.o
GENERAL_NAMES_it                                  output.o
GENERAL_NAMES_new                                 output.o
GENERAL_NAME_cmp                                  output.o
GENERAL_NAME_dup                                  output.o
GENERAL_NAME_free                                 output.o
GENERAL_NAME_get0_otherName                       output.o
GENERAL_NAME_get0_value                           output.o
GENERAL_NAME_it                                   output.o
GENERAL_NAME_new                                  output.o
GENERAL_NAME_print                                output.o
GENERAL_NAME_set0_othername                       output.o
GENERAL_NAME_set0_value                           output.o
GENERAL_SUBTREE_free                              output.o
GENERAL_SUBTREE_it                                output.o
GENERAL_SUBTREE_new                               output.o
GetAttrValType                                    output.o
GetBWICWIData                                     output.o
GetCardStatus                                     output.o
GetDirDataByTlv                                   output.o
GetElem                                           output.o
GetICCardData                                     output.o
GetIFSCData                                       output.o
GetLength                                         output.o
GetOdfDataByTlv                                   output.o
GetTlvByBuf                                       output.o
GetTokenDataByTlv                                 output.o
GetUlByByte                                       output.o
GetUlByTxt                                        output.o
GetValueData                                      output.o
GetVerByTex                                       output.o
HMAC                                              output.o
HMAC_CTX_cleanup                                  output.o
HMAC_CTX_copy                                     output.o
HMAC_CTX_init                                     output.o
HMAC_CTX_set_flags                                output.o
HMAC_Final                                        output.o
HMAC_Init                                         output.o
HMAC_Init_ex                                      output.o
HMAC_Update                                       output.o
HPSearchHotPluggables                             output.o
IDEA_version                                      output.o
IDMan_CheckCardStatus                             output.o
IDMan_CmCheckCRL                                  output.o
IDMan_CmChgRSA                                    output.o
IDMan_CmGetCertificateSign                        output.o
IDMan_CmGetDN                                     output.o
IDMan_CmGetPublicKey                              output.o
IDMan_CmMakeRand                                  output.o
IDMan_CmMkHash                                    output.o
IDMan_CmPadding                                   output.o
IDMan_CmPadding2                                  output.o
IDMan_EncryptByIndex                              output.o
IDMan_IPCheckCrlPkcX                              output.o
IDMan_IPCheckPKC                                  output.o
IDMan_IPCheckSignature                            output.o
IDMan_IPCrSignature                               output.o
IDMan_IPFinalize                                  output.o
IDMan_IPFinalizeReader                            output.o
IDMan_IPIdPassListMalloc                          output.o
IDMan_IPInitialize                                output.o
IDMan_IPInitializeReader                          output.o
IDMan_IPMkPublicKeyObj                            output.o
IDMan_IPMkRandHash                                output.o
IDMan_IPRetJudgment                               output.o
IDMan_IPSignatureVerify                           output.o
IDMan_IPgCIndexParamChk                           output.o
IDMan_IPgCParamChk                                output.o
IDMan_IPgIdxSParamChk                             output.o
IDMan_IPgSParamChk                                output.o
IDMan_IPgetCertIdxPKCS                            output.o
IDMan_IPgetCertPKCS                               output.o
IDMan_IPgetCertPkeyIdxPKCSx                       output.o
IDMan_IPgetCertPkeyPKCSx                          output.o
IDMan_IPgetCertPkeyPKCSy                          output.o
IDMan_IPgetHash                                   output.o
IDMan_IPgetMakeRandData                           output.o
IDMan_IPgetPrivateKey                             output.o
IDMan_IPgetPrivateKeyPKCSx                        output.o
IDMan_IPuAPKCS11IdxParamChk                       output.o
IDMan_IPuAPKCS11ParamChk                          output.o
IDMan_IPvSIdxParamChk                             output.o
IDMan_IPvSParamChk                                output.o
IDMan_PaddingParamChk                             output.o
IDMan_SCardConnect                                output.o
IDMan_SCardDisconnect                             output.o
IDMan_SCardEstablishContext                       output.o
IDMan_SCardListReaders                            output.o
IDMan_SCardReleaseContext                         output.o
IDMan_SCardSetBinay                               output.o
IDMan_SCardSizeLongToChar                         output.o
IDMan_SCardStatus                                 output.o
IDMan_SCardTransmit                               output.o
IDMan_StAtoi                                      output.o
IDMan_StAtol                                      output.o
IDMan_StFree                                      output.o
IDMan_StMalloc                                    output.o
IDMan_StMemcmp                                    output.o
IDMan_StMemcpy                                    output.o
IDMan_StMemset                                    output.o
IDMan_StReadSetData                               output.o
IDMan_StStrcat                                    output.o
IDMan_StStrchr                                    output.o
IDMan_StStrcmp                                    output.o
IDMan_StStrcpy                                    output.o
IDMan_StStrlen                                    output.o
IDMan_generateSignature                           output.o
IDMan_generateSignatureByIndex                    output.o
IDMan_getCertificate                              output.o
IDMan_getCertificateByIndex                       output.o
IDMan_getMemoryFree                               output.o
IDMan_getStaticPassword                           output.o
IDMan_userAuthPKCS11                              output.o
IDMan_userAuthPKCS11ByIndex                       output.o
IDMan_verifySignature                             output.o
IDMan_verifySignatureByIndex                      output.o
IFDHCloseChannel                                  output.o
IFDHControl                                       output.o
IFDHCreateChannel                                 output.o
IFDHGetCapabilities                               output.o
IFDHICCPresence                                   output.o
IFDHPowerICC                                      output.o
IFDHSetProtocolParameters                         output.o
IFDHTransmitToICC                                 output.o
ISSUING_DIST_POINT_free                           output.o
ISSUING_DIST_POINT_it                             output.o
ISSUING_DIST_POINT_new                            output.o
InitCryptoLibrary                                 output.o
InitLeaderCardProtocol                            output.o
InternalAuth                                      output.o
LONG_it                                           output.o
MD4_Final                                         output.o
MD4_Init                                          output.o
MD4_Transform                                     output.o
MD4_Update                                        output.o
MD4_version                                       output.o
MD5                                               output.o
MD5_Final                                         output.o
MD5_Init                                          output.o
MD5_Transform                                     output.o
MD5_Update                                        output.o
MD5_version                                       output.o
NAME_CONSTRAINTS_check                            output.o
NAME_CONSTRAINTS_free                             output.o
NAME_CONSTRAINTS_it                               output.o
NAME_CONSTRAINTS_new                              output.o
NCONF_WIN32                                       output.o
NCONF_default                                     output.o
NCONF_dump_bio                                    output.o
NCONF_free                                        output.o
NCONF_free_data                                   output.o
NCONF_get_number_e                                output.o
NCONF_get_section                                 output.o
NCONF_get_string                                  output.o
NCONF_load                                        output.o
NCONF_load_bio                                    output.o
NCONF_new                                         output.o
NETSCAPE_CERT_SEQUENCE_free                       output.o
NETSCAPE_CERT_SEQUENCE_it                         output.o
NETSCAPE_CERT_SEQUENCE_new                        output.o
NETSCAPE_SPKAC_free                               output.o
NETSCAPE_SPKAC_it                                 output.o
NETSCAPE_SPKAC_new                                output.o
NETSCAPE_SPKI_free                                output.o
NETSCAPE_SPKI_it                                  output.o
NETSCAPE_SPKI_new                                 output.o
NETSCAPE_SPKI_sign                                output.o
NETSCAPE_SPKI_verify                              output.o
NOTICEREF_free                                    output.o
NOTICEREF_it                                      output.o
NOTICEREF_new                                     output.o
OBJ_NAME_add                                      output.o
OBJ_NAME_cleanup                                  output.o
OBJ_NAME_do_all                                   output.o
OBJ_NAME_do_all_sorted                            output.o
OBJ_NAME_get                                      output.o
OBJ_NAME_init                                     output.o
OBJ_NAME_new_index                                output.o
OBJ_NAME_remove                                   output.o
OBJ_add_object                                    output.o
OBJ_add_sigid                                     output.o
OBJ_bsearch_                                      output.o
OBJ_bsearch_ex_                                   output.o
OBJ_cleanup                                       output.o
OBJ_cmp                                           output.o
OBJ_create                                        output.o
OBJ_create_objects                                output.o
OBJ_dup                                           output.o
OBJ_find_sigid_algs                               output.o
OBJ_find_sigid_by_algs                            output.o
OBJ_ln2nid                                        output.o
OBJ_new_nid                                       output.o
OBJ_nid2ln                                        output.o
OBJ_nid2obj                                       output.o
OBJ_nid2sn                                        output.o
OBJ_obj2nid                                       output.o
OBJ_obj2txt                                       output.o
OBJ_sigid_free                                    output.o
OBJ_sn2nid                                        output.o
OBJ_txt2nid                                       output.o
OBJ_txt2obj                                       output.o
OCSP_BASICRESP_free                               output.o
OCSP_BASICRESP_it                                 output.o
OCSP_BASICRESP_new                                output.o
OCSP_CERTID_free                                  output.o
OCSP_CERTID_it                                    output.o
OCSP_CERTID_new                                   output.o
OCSP_CERTSTATUS_free                              output.o
OCSP_CERTSTATUS_it                                output.o
OCSP_CERTSTATUS_new                               output.o
OCSP_CRLID_free                                   output.o
OCSP_CRLID_it                                     output.o
OCSP_CRLID_new                                    output.o
OCSP_ONEREQ_free                                  output.o
OCSP_ONEREQ_it                                    output.o
OCSP_ONEREQ_new                                   output.o
OCSP_REQINFO_free                                 output.o
OCSP_REQINFO_it                                   output.o
OCSP_REQINFO_new                                  output.o
OCSP_REQUEST_free                                 output.o
OCSP_REQUEST_it                                   output.o
OCSP_REQUEST_new                                  output.o
OCSP_RESPBYTES_free                               output.o
OCSP_RESPBYTES_it                                 output.o
OCSP_RESPBYTES_new                                output.o
OCSP_RESPDATA_free                                output.o
OCSP_RESPDATA_it                                  output.o
OCSP_RESPDATA_new                                 output.o
OCSP_RESPID_free                                  output.o
OCSP_RESPID_it                                    output.o
OCSP_RESPID_new                                   output.o
OCSP_RESPONSE_free                                output.o
OCSP_RESPONSE_it                                  output.o
OCSP_RESPONSE_new                                 output.o
OCSP_REVOKEDINFO_free                             output.o
OCSP_REVOKEDINFO_it                               output.o
OCSP_REVOKEDINFO_new                              output.o
OCSP_SERVICELOC_free                              output.o
OCSP_SERVICELOC_it                                output.o
OCSP_SERVICELOC_new                               output.o
OCSP_SIGNATURE_free                               output.o
OCSP_SIGNATURE_it                                 output.o
OCSP_SIGNATURE_new                                output.o
OCSP_SINGLERESP_free                              output.o
OCSP_SINGLERESP_it                                output.o
OCSP_SINGLERESP_new                               output.o
OPENSSL_NONPIC_relocated                          output.o
OPENSSL_asc2uni                                   output.o
OPENSSL_cleanse                                   output.o
OPENSSL_cpuid_setup                               output.o
OPENSSL_gmtime                                    output.o
OPENSSL_gmtime_adj                                output.o
OPENSSL_ia32cap_P                                 output.o
OPENSSL_ia32cap_loc                               output.o
OPENSSL_isservice                                 output.o
OPENSSL_showfatal                                 output.o
OPENSSL_stderr                                    output.o
OPENSSL_uni2asc                                   output.o
OSSL_DES_version                                  output.o
OSSL_libdes_version                               output.o
OTHERNAME_cmp                                     output.o
OTHERNAME_free                                    output.o
OTHERNAME_it                                      output.o
OTHERNAME_new                                     output.o
OpenSSLDie                                        output.o
OpenSSL_add_all_ciphers                           output.o
OpenSSL_add_all_digests                           output.o
OpenUSB                                           output.o
PBE2PARAM_free                                    output.o
PBE2PARAM_it                                      output.o
PBE2PARAM_new                                     output.o
PBEPARAM_free                                     output.o
PBEPARAM_it                                       output.o
PBEPARAM_new                                      output.o
PBKDF2PARAM_free                                  output.o
PBKDF2PARAM_it                                    output.o
PBKDF2PARAM_new                                   output.o
PEM_ASN1_read_bio                                 output.o
PEM_ASN1_write_bio                                output.o
PEM_bytes_read_bio                                output.o
PEM_def_callback                                  output.o
PEM_dek_info                                      output.o
PEM_do_header                                     output.o
PEM_get_EVP_CIPHER_INFO                           output.o
PEM_proc_type                                     output.o
PEM_read_bio                                      output.o
PEM_read_bio_CMS                                  output.o
PEM_read_bio_DHparams                             output.o
PEM_read_bio_DSAPrivateKey                        output.o
PEM_read_bio_DSA_PUBKEY                           output.o
PEM_read_bio_DSAparams                            output.o
PEM_read_bio_ECPKParameters                       output.o
PEM_read_bio_ECPrivateKey                         output.o
PEM_read_bio_EC_PUBKEY                            output.o
PEM_read_bio_NETSCAPE_CERT_SEQUENCE               output.o
PEM_read_bio_PKCS7                                output.o
PEM_read_bio_PKCS8                                output.o
PEM_read_bio_PKCS8_PRIV_KEY_INFO                  output.o
PEM_read_bio_PUBKEY                               output.o
PEM_read_bio_Parameters                           output.o
PEM_read_bio_PrivateKey                           output.o
PEM_read_bio_RSAPrivateKey                        output.o
PEM_read_bio_RSAPublicKey                         output.o
PEM_read_bio_RSA_PUBKEY                           output.o
PEM_read_bio_X509                                 output.o
PEM_read_bio_X509_CRL                             output.o
PEM_read_bio_X509_REQ                             output.o
PEM_version                                       output.o
PEM_write_bio                                     output.o
PEM_write_bio_ASN1_stream                         output.o
PEM_write_bio_CMS                                 output.o
PEM_write_bio_CMS_stream                          output.o
PEM_write_bio_DHparams                            output.o
PEM_write_bio_DSAPrivateKey                       output.o
PEM_write_bio_DSA_PUBKEY                          output.o
PEM_write_bio_DSAparams                           output.o
PEM_write_bio_ECPKParameters                      output.o
PEM_write_bio_ECPrivateKey                        output.o
PEM_write_bio_EC_PUBKEY                           output.o
PEM_write_bio_NETSCAPE_CERT_SEQUENCE              output.o
PEM_write_bio_PKCS7                               output.o
PEM_write_bio_PKCS8                               output.o
PEM_write_bio_PKCS8PrivateKey                     output.o
PEM_write_bio_PKCS8PrivateKey_nid                 output.o
PEM_write_bio_PKCS8_PRIV_KEY_INFO                 output.o
PEM_write_bio_PUBKEY                              output.o
PEM_write_bio_Parameters                          output.o
PEM_write_bio_PrivateKey                          output.o
PEM_write_bio_RSAPrivateKey                       output.o
PEM_write_bio_RSAPublicKey                        output.o
PEM_write_bio_RSA_PUBKEY                          output.o
PEM_write_bio_X509                                output.o
PEM_write_bio_X509_CRL                            output.o
PEM_write_bio_X509_REQ                            output.o
PEM_write_bio_X509_REQ_NEW                        output.o
PHGetProtocol                                     output.o
PHSetProtocol                                     output.o
PKCS12_AUTHSAFES_it                               output.o
PKCS12_BAGS_free                                  output.o
PKCS12_BAGS_it                                    output.o
PKCS12_BAGS_new                                   output.o
PKCS12_MAC_DATA_free                              output.o
PKCS12_MAC_DATA_it                                output.o
PKCS12_MAC_DATA_new                               output.o
PKCS12_MAKE_KEYBAG                                output.o
PKCS12_MAKE_SHKEYBAG                              output.o
PKCS12_PBE_add                                    output.o
PKCS12_PBE_keyivgen                               output.o
PKCS12_SAFEBAGS_it                                output.o
PKCS12_SAFEBAG_free                               output.o
PKCS12_SAFEBAG_it                                 output.o
PKCS12_SAFEBAG_new                                output.o
PKCS12_certbag2x509                               output.o
PKCS12_certbag2x509crl                            output.o
PKCS12_decrypt_skey                               output.o
PKCS12_free                                       output.o
PKCS12_it                                         output.o
PKCS12_item_decrypt_d2i                           output.o
PKCS12_item_i2d_encrypt                           output.o
PKCS12_item_pack_safebag                          output.o
PKCS12_key_gen_asc                                output.o
PKCS12_key_gen_uni                                output.o
PKCS12_new                                        output.o
PKCS12_pack_authsafes                             output.o
PKCS12_pack_p7data                                output.o
PKCS12_pack_p7encdata                             output.o
PKCS12_pbe_crypt                                  output.o
PKCS12_unpack_authsafes                           output.o
PKCS12_unpack_p7data                              output.o
PKCS12_unpack_p7encdata                           output.o
PKCS12_x5092certbag                               output.o
PKCS12_x509crl2certbag                            output.o
PKCS1_MGF1                                        output.o
PKCS5_PBE_add                                     output.o
PKCS5_PBE_keyivgen                                output.o
PKCS5_PBKDF2_HMAC                                 output.o
PKCS5_PBKDF2_HMAC_SHA1                            output.o
PKCS5_pbe2_set                                    output.o
PKCS5_pbe2_set_iv                                 output.o
PKCS5_pbe_set                                     output.o
PKCS5_pbe_set0_algor                              output.o
PKCS5_v2_PBE_keyivgen                             output.o
PKCS7_ATTR_SIGN_it                                output.o
PKCS7_ATTR_VERIFY_it                              output.o
PKCS7_DIGEST_free                                 output.o
PKCS7_DIGEST_it                                   output.o
PKCS7_DIGEST_new                                  output.o
PKCS7_ENCRYPT_free                                output.o
PKCS7_ENCRYPT_it                                  output.o
PKCS7_ENCRYPT_new                                 output.o
PKCS7_ENC_CONTENT_free                            output.o
PKCS7_ENC_CONTENT_it                              output.o
PKCS7_ENC_CONTENT_new                             output.o
PKCS7_ENVELOPE_free                               output.o
PKCS7_ENVELOPE_it                                 output.o
PKCS7_ENVELOPE_new                                output.o
PKCS7_ISSUER_AND_SERIAL_digest                    output.o
PKCS7_ISSUER_AND_SERIAL_free                      output.o
PKCS7_ISSUER_AND_SERIAL_it                        output.o
PKCS7_ISSUER_AND_SERIAL_new                       output.o
PKCS7_RECIP_INFO_free                             output.o
PKCS7_RECIP_INFO_get0_alg                         output.o
PKCS7_RECIP_INFO_it                               output.o
PKCS7_RECIP_INFO_new                              output.o
PKCS7_RECIP_INFO_set                              output.o
PKCS7_SIGNED_free                                 output.o
PKCS7_SIGNED_it                                   output.o
PKCS7_SIGNED_new                                  output.o
PKCS7_SIGNER_INFO_free                            output.o
PKCS7_SIGNER_INFO_get0_algs                       output.o
PKCS7_SIGNER_INFO_it                              output.o
PKCS7_SIGNER_INFO_new                             output.o
PKCS7_SIGNER_INFO_set                             output.o
PKCS7_SIGNER_INFO_sign                            output.o
PKCS7_SIGN_ENVELOPE_free                          output.o
PKCS7_SIGN_ENVELOPE_it                            output.o
PKCS7_SIGN_ENVELOPE_new                           output.o
PKCS7_add0_attrib_signing_time                    output.o
PKCS7_add1_attrib_digest                          output.o
PKCS7_add_attrib_content_type                     output.o
PKCS7_add_attrib_smimecap                         output.o
PKCS7_add_attribute                               output.o
PKCS7_add_certificate                             output.o
PKCS7_add_crl                                     output.o
PKCS7_add_recipient                               output.o
PKCS7_add_recipient_info                          output.o
PKCS7_add_signature                               output.o
PKCS7_add_signed_attribute                        output.o
PKCS7_add_signer                                  output.o
PKCS7_cert_from_signer_info                       output.o
PKCS7_content_new                                 output.o
PKCS7_ctrl                                        output.o
PKCS7_dataDecode                                  output.o
PKCS7_dataFinal                                   output.o
PKCS7_dataInit                                    output.o
PKCS7_dataVerify                                  output.o
PKCS7_digest_from_attributes                      output.o
PKCS7_dup                                         output.o
PKCS7_free                                        output.o
PKCS7_get_attribute                               output.o
PKCS7_get_issuer_and_serial                       output.o
PKCS7_get_signed_attribute                        output.o
PKCS7_get_signer_info                             output.o
PKCS7_get_smimecap                                output.o
PKCS7_it                                          output.o
PKCS7_new                                         output.o
PKCS7_print_ctx                                   output.o
PKCS7_set0_type_other                             output.o
PKCS7_set_attributes                              output.o
PKCS7_set_cipher                                  output.o
PKCS7_set_content                                 output.o
PKCS7_set_digest                                  output.o
PKCS7_set_signed_attributes                       output.o
PKCS7_set_type                                    output.o
PKCS7_signatureVerify                             output.o
PKCS7_simple_smimecap                             output.o
PKCS7_stream                                      output.o
PKCS8_PRIV_KEY_INFO_free                          output.o
PKCS8_PRIV_KEY_INFO_it                            output.o
PKCS8_PRIV_KEY_INFO_new                           output.o
PKCS8_decrypt                                     output.o
PKCS8_encrypt                                     output.o
PKCS8_pkey_get0                                   output.o
PKCS8_pkey_set0                                   output.o
PKCS8_set_broken                                  output.o
PKEY_USAGE_PERIOD_free                            output.o
PKEY_USAGE_PERIOD_it                              output.o
PKEY_USAGE_PERIOD_new                             output.o
POLICYINFO_free                                   output.o
POLICYINFO_it                                     output.o
POLICYINFO_new                                    output.o
POLICYQUALINFO_free                               output.o
POLICYQUALINFO_it                                 output.o
POLICYQUALINFO_new                                output.o
POLICY_CONSTRAINTS_free                           output.o
POLICY_CONSTRAINTS_it                             output.o
POLICY_CONSTRAINTS_new                            output.o
POLICY_MAPPINGS_it                                output.o
POLICY_MAPPING_free                               output.o
POLICY_MAPPING_it                                 output.o
POLICY_MAPPING_new                                output.o
PROXY_CERT_INFO_EXTENSION_free                    output.o
PROXY_CERT_INFO_EXTENSION_it                      output.o
PROXY_CERT_INFO_EXTENSION_new                     output.o
PROXY_POLICY_free                                 output.o
PROXY_POLICY_it                                   output.o
PROXY_POLICY_new                                  output.o
PowerOff                                          output.o
PowerOn                                           output.o
RAND_SSLeay                                       output.o
RAND_add                                          output.o
RAND_bytes                                        output.o
RAND_cleanup                                      output.o
RAND_get_rand_method                              output.o
RAND_poll                                         output.o
RAND_pseudo_bytes                                 output.o
RAND_seed                                         output.o
RAND_set_rand_method                              output.o
RAND_status                                       output.o
RAND_version                                      output.o
RC2_cbc_encrypt                                   output.o
RC2_cfb64_encrypt                                 output.o
RC2_decrypt                                       output.o
RC2_ecb_encrypt                                   output.o
RC2_encrypt                                       output.o
RC2_ofb64_encrypt                                 output.o
RC2_set_key                                       output.o
RC2_version                                       output.o
RC4                                               output.o
RC4_options                                       output.o
RC4_set_key                                       output.o
RC4_version                                       output.o
RFAddReader                                       output.o
RFCheckReaderEventState                           output.o
RFReaderInfoById                                  output.o
RFRemoveReader                                    output.o
RIPEMD160_Final                                   output.o
RIPEMD160_Init                                    output.o
RIPEMD160_Transform                               output.o
RIPEMD160_Update                                  output.o
RMD160_version                                    output.o
RSAPrivateKey_dup                                 output.o
RSAPrivateKey_it                                  output.o
RSAPublicKey_dup                                  output.o
RSAPublicKey_it                                   output.o
RSA_PKCS1_SSLeay                                  output.o
RSA_X931_hash_id                                  output.o
RSA_blinding_off                                  output.o
RSA_blinding_on                                   output.o
RSA_flags                                         output.o
RSA_free                                          output.o
RSA_generate_key                                  output.o
RSA_generate_key_ex                               output.o
RSA_get_default_method                            output.o
RSA_get_ex_data                                   output.o
RSA_get_ex_new_index                              output.o
RSA_get_method                                    output.o
RSA_memory_lock                                   output.o
RSA_new                                           output.o
RSA_new_method                                    output.o
RSA_padding_add_PKCS1_OAEP                        output.o
RSA_padding_add_PKCS1_PSS                         output.o
RSA_padding_add_PKCS1_type_1                      output.o
RSA_padding_add_PKCS1_type_2                      output.o
RSA_padding_add_SSLv23                            output.o
RSA_padding_add_X931                              output.o
RSA_padding_add_none                              output.o
RSA_padding_check_PKCS1_OAEP                      output.o
RSA_padding_check_PKCS1_type_1                    output.o
RSA_padding_check_PKCS1_type_2                    output.o
RSA_padding_check_SSLv23                          output.o
RSA_padding_check_X931                            output.o
RSA_padding_check_none                            output.o
RSA_private_decrypt                               output.o
RSA_private_encrypt                               output.o
RSA_public_decrypt                                output.o
RSA_public_encrypt                                output.o
RSA_set_default_method                            output.o
RSA_set_ex_data                                   output.o
RSA_set_method                                    output.o
RSA_setup_blinding                                output.o
RSA_sign                                          output.o
RSA_size                                          output.o
RSA_up_ref                                        output.o
RSA_verify                                        output.o
RSA_verify_PKCS1_PSS                              output.o
RSA_version                                       output.o
ReadBinary                                        output.o
ReadDataT0                                        output.o
ReadUSB                                           output.o
ReceiveReply                                      output.o
SCardBeginTransaction                             output.o
SCardConnect                                      output.o
SCardDisconnect                                   output.o
SCardEndTransaction                               output.o
SCardEstablishContext                             output.o
SCardListReaders                                  output.o
SCardReleaseContext                               output.o
SCardStatus                                       output.o
SCardTransmit                                     output.o
SHA1                                              output.o
SHA1_Final                                        output.o
SHA1_Init                                         output.o
SHA1_Transform                                    output.o
SHA1_Update                                       output.o
SHA1_version                                      output.o
SHA224                                            output.o
SHA224_Final                                      output.o
SHA224_Init                                       output.o
SHA224_Update                                     output.o
SHA256                                            output.o
SHA256_Final                                      output.o
SHA256_Init                                       output.o
SHA256_Transform                                  output.o
SHA256_Update                                     output.o
SHA256_version                                    output.o
SHA384                                            output.o
SHA384_Final                                      output.o
SHA384_Init                                       output.o
SHA384_Update                                     output.o
SHA512                                            output.o
SHA512_Final                                      output.o
SHA512_Init                                       output.o
SHA512_Transform                                  output.o
SHA512_Update                                     output.o
SHA512_version                                    output.o
SHA_Final                                         output.o
SHA_Init                                          output.o
SHA_Transform                                     output.o
SHA_Update                                        output.o
SHA_version                                       output.o
SMIME_crlf_copy                                   output.o
SMIME_read_ASN1                                   output.o
SMIME_read_CMS                                    output.o
SMIME_text                                        output.o
SMIME_write_ASN1                                  output.o
SMIME_write_CMS                                   output.o
STACK_version                                     output.o
SXNETID_free                                      output.o
SXNETID_it                                        output.o
SXNETID_new                                       output.o
SXNET_add_id_INTEGER                              output.o
SXNET_add_id_asc                                  output.o
SXNET_add_id_ulong                                output.o
SXNET_free                                        output.o
SXNET_get_id_INTEGER                              output.o
SXNET_get_id_asc                                  output.o
SXNET_get_id_ulong                                output.o
SXNET_it                                          output.o
SXNET_new                                         output.o
Se4AddArpEntryList                                output.o
Se4AdjustTcpMss                                   output.o
Se4And                                            output.o
Se4BitToHex                                       output.o
Se4BroadcastMacAddress                            output.o
Se4BuildIcmpEchoPacket                            output.o
Se4CheckUnicastAddress                            output.o
Se4Cmp                                            output.o
Se4CmpArpEntry                                    output.o
Se4CmpArpWaitEntry                                output.o
Se4CmpIpCombineList                               output.o
Se4CombineIp                                      output.o
Se4FlushArpEntryList                              output.o
Se4FlushIpCombineList                             output.o
Se4FlushIpWaitList                                output.o
Se4Free                                           output.o
Se4FreeArpEntryList                               output.o
Se4FreeArpWaitList                                output.o
Se4FreeIpCombine                                  output.o
Se4FreeIpCombineList                              output.o
Se4FreeIpFragmentList                             output.o
Se4FreeIpHeaderInfo                               output.o
Se4FreeIpWait                                     output.o
Se4FreeIpWaitList                                 output.o
Se4GenerateSubnetMask                             output.o
Se4GenerateSubnetMask32                           output.o
Se4GetBroadcastAddress                            output.o
Se4GetHostAddress                                 output.o
Se4GetNetworkAddress                              output.o
Se4IPToStr                                        output.o
Se4IPToStr32                                      output.o
Se4IPToUINT                                       output.o
Se4Init                                           output.o
Se4InitArpEntryList                               output.o
Se4InitArpWaitList                                output.o
Se4InitIpCombineList                              output.o
Se4InitIpFragmentList                             output.o
Se4InitIpWaitList                                 output.o
Se4InsertIpCombine                                output.o
Se4InsertIpWait                                   output.o
Se4IpCheckChecksum                                output.o
Se4IpChecksum                                     output.o
Se4IsBroadcastAddress                             output.o
Se4IsInSameNetwork                                output.o
Se4IsSubnetMask                                   output.o
Se4IsZeroIP                                       output.o
Se4MacIpRelationKnown                             output.o
Se4MainProc                                       output.o
Se4Not                                            output.o
Se4Or                                             output.o
Se4ParseIpPacket                                  output.o
Se4ParseIpPacketICMPv4                            output.o
Se4ParseIpPacketUDPv4                             output.o
Se4ProcessArpWaitList                             output.o
Se4RecvArp                                        output.o
Se4RecvArpRequest                                 output.o
Se4RecvArpResponse                                output.o
Se4RecvEthPacket                                  output.o
Se4RecvIp                                         output.o
Se4RecvIpComplete                                 output.o
Se4SearchArpEntryList                             output.o
Se4SearchArpWaitList                              output.o
Se4SearchIpCombineList                            output.o
Se4SendArpDoProcess                               output.o
Se4SendArpRequest                                 output.o
Se4SendArpResponse                                output.o
Se4SendEthPacket                                  output.o
Se4SendIcmp                                       output.o
Se4SendIcmpEchoRequest                            output.o
Se4SendIcmpEchoResponse                           output.o
Se4SendIp                                         output.o
Se4SendIpFragment                                 output.o
Se4SendIpFragmentNow                              output.o
Se4SendRawIp                                      output.o
Se4SendUdp                                        output.o
Se4SendWaitingIpWait                              output.o
Se4StrToIP                                        output.o
Se4StrToIP32                                      output.o
Se4Tick                                           output.o
Se4UINTToIP                                       output.o
Se4ZeroIP                                         output.o
Se6AddGuestNode                                   output.o
Se6AddNeighborEntryList                           output.o
Se6And                                            output.o
Se6BroadcastMacAddress                            output.o
Se6BuildIcmpEchoPacket                            output.o
Se6CalcChecksum                                   output.o
Se6CheckIPItemStr                                 output.o
Se6CheckSubnetLength                              output.o
Se6CheckUnicastAddress                            output.o
Se6Cmp                                            output.o
Se6CmpIpCombineList                               output.o
Se6CmpNdpWaitEntry                                output.o
Se6CmpNeighborEntry                               output.o
Se6CombineIp                                      output.o
Se6FlushIpCombineList                             output.o
Se6FlushIpWaitList                                output.o
Se6FlushNeighborEntryList                         output.o
Se6Free                                           output.o
Se6FreeIpCombine                                  output.o
Se6FreeIpCombineList                              output.o
Se6FreeIpFragmentList                             output.o
Se6FreeIpHeaderInfo                               output.o
Se6FreeIpWait                                     output.o
Se6FreeIpWaitList                                 output.o
Se6FreeNdpWaitList                                output.o
Se6FreeNeighborEntryList                          output.o
Se6GenerateEui64Address                           output.o
Se6GenerateEui64GlobalAddress                     output.o
Se6GenerateEui64LocalAddress                      output.o
Se6GenerateMulticastMacAddress                    output.o
Se6GenerateSubnetMask                             output.o
Se6GetAllNodeMulticastAddr                        output.o
Se6GetAllRouterMulticastAddr                      output.o
Se6GetHostAddress                                 output.o
Se6GetIPAddrType                                  output.o
Se6GetPrefixAddress                               output.o
Se6GetSoliciationMulticastAddr                    output.o
Se6IPItemStrToChars                               output.o
Se6IPToStr                                        output.o
Se6Init                                           output.o
Se6InitIpCombineList                              output.o
Se6InitIpFragmentList                             output.o
Se6InitIpWaitList                                 output.o
Se6InitNdpWaitList                                output.o
Se6InitNeighborEntryList                          output.o
Se6InsertIpCombine                                output.o
Se6InsertIpWait                                   output.o
Se6IpChecksum                                     output.o
Se6IsGuestNode                                    output.o
Se6IsInSameNetwork                                output.o
Se6IsNetworkPrefixAddress                         output.o
Se6IsSubnetMask                                   output.o
Se6IsZeroIP                                       output.o
Se6LocalSubnet                                    output.o
Se6MacIpRelationKnown                             output.o
Se6MainProc                                       output.o
Se6Not                                            output.o
Se6Or                                             output.o
Se6ParseIpPacket                                  output.o
Se6ParseIpPacketICMPv6                            output.o
Se6ParseIpPacketUDPv6                             output.o
Se6ProcessNdpWaitList                             output.o
Se6RecvEthPacket                                  output.o
Se6RecvIp                                         output.o
Se6RecvIpComplete                                 output.o
Se6SearchIpCombineList                            output.o
Se6SearchNdpWaitList                              output.o
Se6SearchNeighborEntryList                        output.o
Se6SendEthPacket                                  output.o
Se6SendIcmp                                       output.o
Se6SendIcmpEchoRequest                            output.o
Se6SendIcmpEchoResponse                           output.o
Se6SendIcmpNeighborAdvertisement                  output.o
Se6SendIcmpNeighborSoliciation                    output.o
Se6SendIcmpRouterAdvertisement                    output.o
Se6SendIp                                         output.o
Se6SendIpFragment                                 output.o
Se6SendIpFragmentNow                              output.o
Se6SendNeighborSoliciation                        output.o
Se6SendNeighborSoliciationDoProcess               output.o
Se6SendRawIp                                      output.o
Se6SendUdp                                        output.o
Se6SendWaitingIpWait                              output.o
Se6StrToIP                                        output.o
Se6SubnetMaskToInt                                output.o
Se6Tick                                           output.o
Se6ZeroIP                                         output.o
SeAdd                                             output.o
SeAddBufStr                                       output.o
SeAdjustBufSize                                   output.o
SeB64CharToCode                                   output.o
SeB64CodeToChar                                   output.o
SeB64Decode                                       output.o
SeB64Encode                                       output.o
SeBSearch                                         output.o
SeBigNumToBuf                                     output.o
SeBigNumToStr                                     output.o
SeBinToBigNum                                     output.o
SeBinToStr                                        output.o
SeBinToStrEx                                      output.o
SeBioToBuf                                        output.o
SeBioToCert                                       output.o
SeBioToKey                                        output.o
SeBufToBigNum                                     output.o
SeBufToBio                                        output.o
SeBufToCert                                       output.o
SeBufToKey                                        output.o
SeBuildAndAddIPv6PacketOptionHeader               output.o
SeBuildICMPv6OptionValue                          output.o
SeBuildICMPv6Options                              output.o
SeBuildIPv6Packet                                 output.o
SeBuildIPv6PacketWithFragment                     output.o
SeCalcReplaceStrEx                                output.o
SeCertToBio                                       output.o
SeCertToBuf                                       output.o
SeCheckCert                                       output.o
SeCheckCertAndKey                                 output.o
SeCheckSignature                                  output.o
SeClearBuf                                        output.o
SeClearFifo                                       output.o
SeClone                                           output.o
SeCloneBuf                                        output.o
SeCloneCert                                       output.o
SeCloneKey                                        output.o
SeCloneList                                       output.o
SeCmp                                             output.o
SeCmpBuf                                          output.o
SeCmpEx                                           output.o
SeCompareCert                                     output.o
SeCompareStr                                      output.o
SeCopy                                            output.o
SeCopyStr                                         output.o
SeCopyToArray                                     output.o
SeDebug                                           output.o
SeDebugBin                                        output.o
SeDefaultTokenSplitChars                          output.o
SeDelete                                          output.o
SeDeleteAll                                       output.o
SeDeleteLock                                      output.o
SeDes3Decrypt                                     output.o
SeDes3Encrypt                                     output.o
SeDes3FreeKey                                     output.o
SeDes3NewKey                                      output.o
SeDes3RandKey                                     output.o
SeDesFreeKey                                      output.o
SeDesFreeKeyValue                                 output.o
SeDesNewKey                                       output.o
SeDesNewKeyValue                                  output.o
SeDesRandKey                                      output.o
SeDesRandKeyValue                                 output.o
SeDhCompute                                       output.o
SeDhFree                                          output.o
SeDhNew                                           output.o
SeDhNewGroup2                                     output.o
SeDumpBuf                                         output.o
SeEndWith                                         output.o
SeEndian16                                        output.o
SeEndian32                                        output.o
SeEndian64                                        output.o
SeError                                           output.o
SeEthAddSenderMacList                             output.o
SeEthDeleteOldSenderMacList                       output.o
SeEthFree                                         output.o
SeEthGenRandMacAddress                            output.o
SeEthGetInfo                                      output.o
SeEthGetNextRecvPacket                            output.o
SeEthIsSenderMacAddressExistsInList               output.o
SeEthNew                                          output.o
SeEthNicCallback                                  output.o
SeEthParseEthernetPacket                          output.o
SeEthSend                                         output.o
SeEthSendAdd                                      output.o
SeEthSendAll                                      output.o
SeFastSwap                                        output.o
SeFatal                                           output.o
SeFifoSize                                        output.o
SeFormat                                          output.o
SeFormatArgs                                      output.o
SeFormatEx                                        output.o
SeFree                                            output.o
SeFreeBio                                         output.o
SeFreeBuf                                         output.o
SeFreeBufWithoutBuffer                            output.o
SeFreeCert                                        output.o
SeFreeConfigEntryList                             output.o
SeFreeCrypto                                      output.o
SeFreeFifo                                        output.o
SeFreeKernel                                      output.o
SeFreeKey                                         output.o
SeFreeList                                        output.o
SeFreePKey                                        output.o
SeFreePacket                                      output.o
SeFreePacketList                                  output.o
SeFreePacketListWithoutBuffer                     output.o
SeFreeQueue                                       output.o
SeFreeStack                                       output.o
SeFreeToken                                       output.o
SeFreeX509                                        output.o
SeGetCertIssuerName                               output.o
SeGetCertMd5                                      output.o
SeGetCertSha1                                     output.o
SeGetCertSubjectName                              output.o
SeGetConfigBin                                    output.o
SeGetConfigBool                                   output.o
SeGetConfigEntry                                  output.o
SeGetConfigInt                                    output.o
SeGetConfigInt64                                  output.o
SeGetConfigStr                                    output.o
SeGetCurrentCpuId                                 output.o
SeGetKeyAndValue                                  output.o
SeGetKeyFromCert                                  output.o
SeGetNext                                         output.o
SeGetNextHeaderFromQueue                          output.o
SeGetNextInt                                      output.o
SeHashForSignBySHA1                               output.o
SeHexTo4Bit                                       output.o
SeHexToInt                                        output.o
SeHexToInt64                                      output.o
SeIkeBuild                                        output.o
SeIkeBuildCertPayload                             output.o
SeIkeBuildCertRequestPayload                      output.o
SeIkeBuildDataPayload                             output.o
SeIkeBuildDeletePayload                           output.o
SeIkeBuildIdPayload                               output.o
SeIkeBuildNoticePayload                           output.o
SeIkeBuildPayload                                 output.o
SeIkeBuildPayloadList                             output.o
SeIkeBuildProposalPayload                         output.o
SeIkeBuildSaPayload                               output.o
SeIkeBuildTransformPayload                        output.o
SeIkeBuildTransformValue                          output.o
SeIkeBuildTransformValueList                      output.o
SeIkeDecrypt                                      output.o
SeIkeEncrypt                                      output.o
SeIkeEncryptWithPadding                           output.o
SeIkeFree                                         output.o
SeIkeFreeCertPayload                              output.o
SeIkeFreeCertRequestPayload                       output.o
SeIkeFreeDataPayload                              output.o
SeIkeFreeDeletePayload                            output.o
SeIkeFreeIdPayload                                output.o
SeIkeFreeNoticePayload                            output.o
SeIkeFreePayload                                  output.o
SeIkeFreePayloadList                              output.o
SeIkeFreeProposalPayload                          output.o
SeIkeFreeSaPayload                                output.o
SeIkeFreeTransformPayload                         output.o
SeIkeFreeTransformValueList                       output.o
SeIkeGetFirstPayloadType                          output.o
SeIkeGetIPv4Address                               output.o
SeIkeGetIPv6Address                               output.o
SeIkeGetPayload                                   output.o
SeIkeGetPayloadNum                                output.o
SeIkeInitIPv4Address                              output.o
SeIkeInitIPv6Address                              output.o
SeIkeIpAddressToStr                               output.o
SeIkeIsZeroIP                                     output.o
SeIkeNew                                          output.o
SeIkeNewCertPayload                               output.o
SeIkeNewCertRequestPayload                        output.o
SeIkeNewDataPayload                               output.o
SeIkeNewDeletePayload                             output.o
SeIkeNewIdPayload                                 output.o
SeIkeNewNoticePayload                             output.o
SeIkeNewPayload                                   output.o
SeIkeNewProposalPayload                           output.o
SeIkeNewSaPayload                                 output.o
SeIkeNewTransformPayload                          output.o
SeIkeNewTransformValue                            output.o
SeIkeParse                                        output.o
SeIkeParseCertPayload                             output.o
SeIkeParseCertRequestPayload                      output.o
SeIkeParseDataPayload                             output.o
SeIkeParseDeletePayload                           output.o
SeIkeParseEx                                      output.o
SeIkeParseHeader                                  output.o
SeIkeParseIdPayload                               output.o
SeIkeParseNoticePayload                           output.o
SeIkeParsePayload                                 output.o
SeIkeParsePayloadList                             output.o
SeIkeParsePayloadListEx                           output.o
SeIkeParseProposalPayload                         output.o
SeIkeParseSaPayload                               output.o
SeIkeParseTransformPayload                        output.o
SeIkeParseTransformValueList                      output.o
SeIkePhase1CryptIdToKeySize                       output.o
SeIkePhase2CryptIdToKeySize                       output.o
SeIkeStrToPassword                                output.o
SeIkeStrToPhase1CryptId                           output.o
SeIkeStrToPhase1HashId                            output.o
SeIkeStrToPhase1Mode                              output.o
SeIkeStrToPhase2CryptId                           output.o
SeIkeStrToPhase2HashId                            output.o
SeInfo                                            output.o
SeInitCrypto                                      output.o
SeInitKernel                                      output.o
SeInsert                                          output.o
SeInsertQueue                                     output.o
SeInsertQueueInt                                  output.o
SeInsertStr                                       output.o
SeIntFree                                         output.o
SeIntInit                                         output.o
SeIsAllLowerStr                                   output.o
SeIsAllUpperStr                                   output.o
SeIsBase64                                        output.o
SeIsBigEndian                                     output.o
SeIsCertSignedByCert                              output.o
SeIsCharInStr                                     output.o
SeIsEmptyStr                                      output.o
SeIsInList                                        output.o
SeIsInListStr                                     output.o
SeIsLittleEndian                                  output.o
SeIsSplitChar                                     output.o
SeIsZero                                          output.o
SeKeyToBio                                        output.o
SeKeyToBuf                                        output.o
SeLoad                                            output.o
SeLoadCert                                        output.o
SeLoadConfigEntryList                             output.o
SeLoadConfigEntryListFromBuf                      output.o
SeLoadKey                                         output.o
SeLock                                            output.o
SeLog                                             output.o
SeLogArgs                                         output.o
SeMacSha1                                         output.o
SeMacSha196                                       output.o
SeMacToStr                                        output.o
SeMakeCharArray                                   output.o
SeMalloc                                          output.o
SeMd5                                             output.o
SeMemSize                                         output.o
SeMemToBuf                                        output.o
SeNewBio                                          output.o
SeNewBuf                                          output.o
SeNewFifo                                         output.o
SeNewList                                         output.o
SeNewLock                                         output.o
SeNewQueue                                        output.o
SeNewStack                                        output.o
SeNormalizeCrlf                                   output.o
SeNullTokenList                                   output.o
SePKeyPasswordCallbackFunction                    output.o
SeParseICMPv6Options                              output.o
SeParseIPv6ExtHeader                              output.o
SeParseIPv6Packet                                 output.o
SeParsePacket                                     output.o
SeParsePacketL2                                   output.o
SeParsePacketL3ARPv4                              output.o
SeParsePacketL3IPv4                               output.o
SeParsePacketL3IPv6                               output.o
SeParseToken                                      output.o
SeParseTokenWithNullStr                           output.o
SePeekFifo                                        output.o
SePeekNext                                        output.o
SePop                                             output.o
SePush                                            output.o
SeQSort                                           output.o
SeRand                                            output.o
SeRand1                                           output.o
SeRand16                                          output.o
SeRand32                                          output.o
SeRand64                                          output.o
SeRand8                                           output.o
SeRandBuf                                         output.o
SeReAlloc                                         output.o
SeReadBuf                                         output.o
SeReadBufFromBuf                                  output.o
SeReadBufInt                                      output.o
SeReadBufInt64                                    output.o
SeReadBufStr                                      output.o
SeReadDump                                        output.o
SeReadFifo                                        output.o
SeReadNextLine                                    output.o
SeReadRemainBuf                                   output.o
SeReplaceListPointer                              output.o
SeReplaceStr                                      output.o
SeReplaceStrEx                                    output.o
SeReplaceStri                                     output.o
SeRsaGen                                          output.o
SeRsaPrivateDecrypt                               output.o
SeRsaPrivateEncrypt                               output.o
SeRsaPublicDecrypt                                output.o
SeRsaPublicEncrypt                                output.o
SeRsaPublicSize                                   output.o
SeRsaPublicToBin                                  output.o
SeRsaPublicToBuf                                  output.o
SeRsaSign                                         output.o
SeRsaSignWithPadding                              output.o
SeRsaSignWithSha1                                 output.o
SeRsaVerifyWithPadding                            output.o
SeRsaVerifyWithSha1                               output.o
SeSave                                            output.o
SeSaveCert                                        output.o
SeSaveKey                                         output.o
SeSearch                                          output.o
SeSearchStr                                       output.o
SeSearchStrEx                                     output.o
SeSearchStri                                      output.o
SeSecAddTimer                                     output.o
SeSecCalcKEYMAT                                   output.o
SeSecCalcKEYMATFull                               output.o
SeSecCalcKa                                       output.o
SeSecCalcP1Iv                                     output.o
SeSecCalcP1KeySet                                 output.o
SeSecCalcP2Iv                                     output.o
SeSecCheckIPsecSaExpires                          output.o
SeSecCheckIkeSaExpires                            output.o
SeSecCmpIkeSa                                     output.o
SeSecDeleteExpiredIPsecSa                         output.o
SeSecDeleteExpiredIkeSa                           output.o
SeSecDoInterval                                   output.o
SeSecEspRecvCallback                              output.o
SeSecForceReconnect                               output.o
SeSecFree                                         output.o
SeSecFreeIPsecSa                                  output.o
SeSecFreeIkeSa                                    output.o
SeSecFreeMain                                     output.o
SeSecFreeP1KeySet                                 output.o
SeSecFreeSaList                                   output.o
SeSecGenIPsecSASpi                                output.o
SeSecGenIkeSaInitCookie                           output.o
SeSecGenIkeSaMessageId                            output.o
SeSecGetIPsecSa                                   output.o
SeSecInit                                         output.o
SeSecInitMain                                     output.o
SeSecInitSaList                                   output.o
SeSecLifeSeconds64bit                             output.o
SeSecNewIPsecSa                                   output.o
SeSecNewIkeSa                                     output.o
SeSecNewSpi                                       output.o
SeSecProcessIkeSaMsg                              output.o
SeSecProcessIkeSaMsgInfo                          output.o
SeSecProcessIkeSaMsgPhase1                        output.o
SeSecProcessIkeSaMsgPhase2                        output.o
SeSecProcessMain                                  output.o
SeSecRecvAggr                                     output.o
SeSecRecvMain2                                    output.o
SeSecRecvMain4                                    output.o
SeSecRecvMain6                                    output.o
SeSecSearchIPsecSaBySpi                           output.o
SeSecSearchIkeSa                                  output.o
SeSecSearchIkeSaBySpi                             output.o
SeSecSendAggr                                     output.o
SeSecSendEsp                                      output.o
SeSecSendIPsecSaDeleteMsg                         output.o
SeSecSendIkeSaDeleteMsg                           output.o
SeSecSendIkeSaMsgInfo                             output.o
SeSecSendIkeSaMsgInfoSimple                       output.o
SeSecSendIkeSaMsgPhase2                           output.o
SeSecSendIkeSaMsgPhase2FinalHash                  output.o
SeSecSendMain1                                    output.o
SeSecSendMain3                                    output.o
SeSecSendMain5                                    output.o
SeSecSendUdp                                      output.o
SeSecSendVirtualIp                                output.o
SeSecSetRecvEspCallback                           output.o
SeSecSetRecvUdpCallback                           output.o
SeSecSetRecvVirtualIpCallback                     output.o
SeSecSetTimerCallback                             output.o
SeSecStartVpnConnect                              output.o
SeSecStrToAuthMethod                              output.o
SeSecTick                                         output.o
SeSecTimerCallback                                output.o
SeSecUdpRecvCallback                              output.o
SeSecVirtualIpRecvCallback                        output.o
SeSeekBuf                                         output.o
SeSetCmp                                          output.o
SeSetSortFlag                                     output.o
SeSha1                                            output.o
SeSort                                            output.o
SeStartWith                                       output.o
SeStrCat                                          output.o
SeStrCheckLen                                     output.o
SeStrCheckSize                                    output.o
SeStrCmp                                          output.o
SeStrCmpi                                         output.o
SeStrCpy                                          output.o
SeStrLen                                          output.o
SeStrLower                                        output.o
SeStrSize                                         output.o
SeStrToBin                                        output.o
SeStrToBinEx                                      output.o
SeStrToMac                                        output.o
SeStrUpper                                        output.o
SeStrnCmp                                         output.o
SeStrnCmpi                                        output.o
SeSwap                                            output.o
SeSwap16                                          output.o
SeSwap32                                          output.o
SeSwap64                                          output.o
SeSysFreeData                                     output.o
SeSysFreeLock                                     output.o
SeSysFreeTimer                                    output.o
SeSysGetCurrentCpuId                              output.o
SeSysGetPhysicalNicInfo                           output.o
SeSysGetTickCount                                 output.o
SeSysGetVirtualNicInfo                            output.o
SeSysLoadData                                     output.o
SeSysLock                                         output.o
SeSysLog                                          output.o
SeSysMemoryAlloc                                  output.o
SeSysMemoryFree                                   output.o
SeSysMemoryReAlloc                                output.o
SeSysNewLock                                      output.o
SeSysNewTimer                                     output.o
SeSysRsaSign                                      output.o
SeSysSaveData                                     output.o
SeSysSendPhysicalNic                              output.o
SeSysSendVirtualNic                               output.o
SeSysSetPhysicalNicRecvCallback                   output.o
SeSysSetTimer                                     output.o
SeSysSetVirtualNicRecvCallback                    output.o
SeSysUnlock                                       output.o
SeTick                                            output.o
SeTick64                                          output.o
SeTick64Internal                                  output.o
SeTimerAdjust                                     output.o
SeTimerCallback                                   output.o
SeTimerEntryCompare                               output.o
SeTimerFree                                       output.o
SeTimerNew                                        output.o
SeTimerSet                                        output.o
SeToArray                                         output.o
SeToHex                                           output.o
SeToHex64                                         output.o
SeToInt                                           output.o
SeToInt64                                         output.o
SeToLower                                         output.o
SeToStr                                           output.o
SeToStr3                                          output.o
SeToStr64                                         output.o
SeToUpper                                         output.o
SeTrim                                            output.o
SeTrimCopy                                        output.o
SeTrimCrlf                                        output.o
SeTrimLeft                                        output.o
SeTrimRight                                       output.o
SeUniqueToken                                     output.o
SeUnlock                                          output.o
SeVpn4ClientAddTimer                              output.o
SeVpn4ClientGetTick                               output.o
SeVpn4ClientSendEsp                               output.o
SeVpn4ClientSendUdp                               output.o
SeVpn4ClientSendVirtualIp                         output.o
SeVpn4ClientSetRecvEspCallback                    output.o
SeVpn4ClientSetRecvUdpCallback                    output.o
SeVpn4ClientSetRecvVirtualIpCallback              output.o
SeVpn4ClientSetTimerCallback                      output.o
SeVpn4DhcpBuildDhcpOptionList                     output.o
SeVpn4DhcpFreeOptionList                          output.o
SeVpn4DhcpOptionsToBuf                            output.o
SeVpn4DhcpParseOptionList                         output.o
SeVpn4DhcpParseOptionListMain                     output.o
SeVpn4DhcpSearchOption                            output.o
SeVpn4DhcpSendResponse                            output.o
SeVpn4DhcpServer                                  output.o
SeVpn4DoInterval                                  output.o
SeVpn4Free                                        output.o
SeVpn4FreeIPsec                                   output.o
SeVpn4IPsecInputFromPhysical                      output.o
SeVpn4IPsecInputFromVirtual                       output.o
SeVpn4IPsecMainProc                               output.o
SeVpn4IPsecSendPing                               output.o
SeVpn4Init                                        output.o
SeVpn4InitIPsec                                   output.o
SeVpn4InitSecConfig                               output.o
SeVpn4MainProc                                    output.o
SeVpn4NewDhcpOption                               output.o
SeVpn4RecvPacketPhysical                          output.o
SeVpn4RecvPacketVirtual                           output.o
SeVpn4SetTimer                                    output.o
SeVpn4Tick                                        output.o
SeVpn6ClientAddTimer                              output.o
SeVpn6ClientGetTick                               output.o
SeVpn6ClientSendEsp                               output.o
SeVpn6ClientSendUdp                               output.o
SeVpn6ClientSendVirtualIp                         output.o
SeVpn6ClientSetRecvEspCallback                    output.o
SeVpn6ClientSetRecvUdpCallback                    output.o
SeVpn6ClientSetRecvVirtualIpCallback              output.o
SeVpn6ClientSetTimerCallback                      output.o
SeVpn6DoInterval                                  output.o
SeVpn6Free                                        output.o
SeVpn6FreeIPsec                                   output.o
SeVpn6IPsecInputFromPhysical                      output.o
SeVpn6IPsecInputFromVirtual                       output.o
SeVpn6IPsecMainProc                               output.o
SeVpn6IPsecSendPing                               output.o
SeVpn6Init                                        output.o
SeVpn6InitIPsec                                   output.o
SeVpn6InitSecConfig                               output.o
SeVpn6MainProc                                    output.o
SeVpn6RecvPacketPhysical                          output.o
SeVpn6RecvPacketVirtual                           output.o
SeVpn6SetTimer                                    output.o
SeVpn6Tick                                        output.o
SeVpn6UpdateGuestOsIpAddress                      output.o
SeVpnAddTimer                                     output.o
SeVpnDoInterval                                   output.o
SeVpnEthRecvCallback                              output.o
SeVpnFree                                         output.o
SeVpnFreeConfig                                   output.o
SeVpnFreeIpStack                                  output.o
SeVpnInit                                         output.o
SeVpnInitIpStack                                  output.o
SeVpnLoadConfig                                   output.o
SeVpnMainFree                                     output.o
SeVpnMainHandler                                  output.o
SeVpnMainInit                                     output.o
SeVpnMainProcRecvEtherPacket                      output.o
SeVpnMainProcess                                  output.o
SeVpnRecvEtherPacket                              output.o
SeVpnRecvIpV4PacketCallback                       output.o
SeVpnRecvIpV6PacketCallback                       output.o
SeVpnSendEtherPacket                              output.o
SeVpnStatusChanged                                output.o
SeVpnTick                                         output.o
SeVpnTimerCallback                                output.o
SeWarning                                         output.o
SeWriteBuf                                        output.o
SeWriteBufBuf                                     output.o
SeWriteBufInt                                     output.o
SeWriteBufInt64                                   output.o
SeWriteBufLine                                    output.o
SeWriteBufStr                                     output.o
SeWriteFifo                                       output.o
SeX509ToCert                                      output.o
SeZero                                            output.o
SeZeroMalloc                                      output.o
SelectFileDF                                      output.o
SelectFileEF                                      output.o
SetATR                                            output.o
SetElem                                           output.o
SetLength                                         output.o
StIsdigit                                         output.o
StIsspace                                         output.o
T0XfrBlockCHAR                                    output.o
T0XfrBlockTPDU                                    output.o
T1NegociateIFSD                                   output.o
T1XfrBlockExtendedAPDU                            output.o
T1XfrBlockTPDU                                    output.o
TransHex2Tex                                      output.o
TransTex2Hex                                      output.o
TransmitCommand                                   output.o
TransmitPPS                                       output.o
UI_OpenSSL                                        output.o
UI_add_error_string                               output.o
UI_add_info_string                                output.o
UI_add_input_boolean                              output.o
UI_add_input_string                               output.o
UI_add_user_data                                  output.o
UI_add_verify_string                              output.o
UI_construct_prompt                               output.o
UI_create_method                                  output.o
UI_ctrl                                           output.o
UI_destroy_method                                 output.o
UI_dup_error_string                               output.o
UI_dup_info_string                                output.o
UI_dup_input_boolean                              output.o
UI_dup_input_string                               output.o
UI_dup_verify_string                              output.o
UI_free                                           output.o
UI_get0_action_string                             output.o
UI_get0_output_string                             output.o
UI_get0_result                                    output.o
UI_get0_result_string                             output.o
UI_get0_test_string                               output.o
UI_get0_user_data                                 output.o
UI_get_default_method                             output.o
UI_get_ex_data                                    output.o
UI_get_ex_new_index                               output.o
UI_get_input_flags                                output.o
UI_get_method                                     output.o
UI_get_result_maxsize                             output.o
UI_get_result_minsize                             output.o
UI_get_string_type                                output.o
UI_method_get_closer                              output.o
UI_method_get_flusher                             output.o
UI_method_get_opener                              output.o
UI_method_get_prompt_constructor                  output.o
UI_method_get_reader                              output.o
UI_method_get_writer                              output.o
UI_method_set_closer                              output.o
UI_method_set_flusher                             output.o
UI_method_set_opener                              output.o
UI_method_set_prompt_constructor                  output.o
UI_method_set_reader                              output.o
UI_method_set_writer                              output.o
UI_new                                            output.o
UI_new_method                                     output.o
UI_process                                        output.o
UI_set_default_method                             output.o
UI_set_ex_data                                    output.o
UI_set_method                                     output.o
UI_set_result                                     output.o
USERNOTICE_free                                   output.o
USERNOTICE_it                                     output.o
USERNOTICE_new                                    output.o
UTF8_getc                                         output.o
UTF8_putc                                         output.o
UpdateBinary                                      output.o
VPN_IPsec_Client_Start                            output.o
VPN_IPsec_Client_Stop                             output.o
VPN_IPsec_Free                                    output.o
VPN_IPsec_Init                                    output.o
Verify                                            output.o
WHIRLPOOL                                         output.o
WHIRLPOOL_BitUpdate                               output.o
WHIRLPOOL_Final                                   output.o
WHIRLPOOL_Init                                    output.o
WHIRLPOOL_Update                                  output.o
WriteUSB                                          output.o
X509V3_EXT_CRL_add_conf                           output.o
X509V3_EXT_CRL_add_nconf                          output.o
X509V3_EXT_REQ_add_conf                           output.o
X509V3_EXT_REQ_add_nconf                          output.o
X509V3_EXT_add                                    output.o
X509V3_EXT_add_alias                              output.o
X509V3_EXT_add_conf                               output.o
X509V3_EXT_add_list                               output.o
X509V3_EXT_add_nconf                              output.o
X509V3_EXT_add_nconf_sk                           output.o
X509V3_EXT_cleanup                                output.o
X509V3_EXT_conf                                   output.o
X509V3_EXT_conf_nid                               output.o
X509V3_EXT_d2i                                    output.o
X509V3_EXT_get                                    output.o
X509V3_EXT_get_nid                                output.o
X509V3_EXT_i2d                                    output.o
X509V3_EXT_nconf                                  output.o
X509V3_EXT_nconf_nid                              output.o
X509V3_EXT_print                                  output.o
X509V3_EXT_val_prn                                output.o
X509V3_NAME_from_section                          output.o
X509V3_add1_i2d                                   output.o
X509V3_add_standard_extensions                    output.o
X509V3_add_value                                  output.o
X509V3_add_value_bool                             output.o
X509V3_add_value_bool_nf                          output.o
X509V3_add_value_int                              output.o
X509V3_add_value_uchar                            output.o
X509V3_conf_free                                  output.o
X509V3_extensions_print                           output.o
X509V3_get_d2i                                    output.o
X509V3_get_section                                output.o
X509V3_get_string                                 output.o
X509V3_get_value_bool                             output.o
X509V3_get_value_int                              output.o
X509V3_parse_list                                 output.o
X509V3_section_free                               output.o
X509V3_set_conf_lhash                             output.o
X509V3_set_ctx                                    output.o
X509V3_set_nconf                                  output.o
X509V3_string_free                                output.o
X509_ALGORS_it                                    output.o
X509_ALGOR_dup                                    output.o
X509_ALGOR_free                                   output.o
X509_ALGOR_get0                                   output.o
X509_ALGOR_it                                     output.o
X509_ALGOR_new                                    output.o
X509_ALGOR_set0                                   output.o
X509_ATTRIBUTE_SET_it                             output.o
X509_ATTRIBUTE_count                              output.o
X509_ATTRIBUTE_create                             output.o
X509_ATTRIBUTE_create_by_NID                      output.o
X509_ATTRIBUTE_create_by_OBJ                      output.o
X509_ATTRIBUTE_create_by_txt                      output.o
X509_ATTRIBUTE_dup                                output.o
X509_ATTRIBUTE_free                               output.o
X509_ATTRIBUTE_get0_data                          output.o
X509_ATTRIBUTE_get0_object                        output.o
X509_ATTRIBUTE_get0_type                          output.o
X509_ATTRIBUTE_it                                 output.o
X509_ATTRIBUTE_new                                output.o
X509_ATTRIBUTE_set1_data                          output.o
X509_ATTRIBUTE_set1_object                        output.o
X509_CERT_AUX_free                                output.o
X509_CERT_AUX_it                                  output.o
X509_CERT_AUX_new                                 output.o
X509_CERT_AUX_print                               output.o
X509_CERT_PAIR_free                               output.o
X509_CERT_PAIR_it                                 output.o
X509_CERT_PAIR_new                                output.o
X509_CINF_free                                    output.o
X509_CINF_it                                      output.o
X509_CINF_new                                     output.o
X509_CRL_INFO_free                                output.o
X509_CRL_INFO_it                                  output.o
X509_CRL_INFO_new                                 output.o
X509_CRL_METHOD_free                              output.o
X509_CRL_METHOD_new                               output.o
X509_CRL_add0_revoked                             output.o
X509_CRL_add1_ext_i2d                             output.o
X509_CRL_add_ext                                  output.o
X509_CRL_cmp                                      output.o
X509_CRL_delete_ext                               output.o
X509_CRL_digest                                   output.o
X509_CRL_dup                                      output.o
X509_CRL_free                                     output.o
X509_CRL_get0_by_cert                             output.o
X509_CRL_get0_by_serial                           output.o
X509_CRL_get_ext                                  output.o
X509_CRL_get_ext_by_NID                           output.o
X509_CRL_get_ext_by_OBJ                           output.o
X509_CRL_get_ext_by_critical                      output.o
X509_CRL_get_ext_count                            output.o
X509_CRL_get_ext_d2i                              output.o
X509_CRL_get_meth_data                            output.o
X509_CRL_it                                       output.o
X509_CRL_match                                    output.o
X509_CRL_new                                      output.o
X509_CRL_set_default_method                       output.o
X509_CRL_set_meth_data                            output.o
X509_CRL_sign                                     output.o
X509_CRL_verify                                   output.o
X509_EXTENSIONS_it                                output.o
X509_EXTENSION_create_by_NID                      output.o
X509_EXTENSION_create_by_OBJ                      output.o
X509_EXTENSION_dup                                output.o
X509_EXTENSION_free                               output.o
X509_EXTENSION_get_critical                       output.o
X509_EXTENSION_get_data                           output.o
X509_EXTENSION_get_object                         output.o
X509_EXTENSION_it                                 output.o
X509_EXTENSION_new                                output.o
X509_EXTENSION_set_critical                       output.o
X509_EXTENSION_set_data                           output.o
X509_EXTENSION_set_object                         output.o
X509_LOOKUP_by_alias                              output.o
X509_LOOKUP_by_fingerprint                        output.o
X509_LOOKUP_by_issuer_serial                      output.o
X509_LOOKUP_by_subject                            output.o
X509_LOOKUP_ctrl                                  output.o
X509_LOOKUP_free                                  output.o
X509_LOOKUP_init                                  output.o
X509_LOOKUP_new                                   output.o
X509_LOOKUP_shutdown                              output.o
X509_NAME_ENTRIES_it                              output.o
X509_NAME_ENTRY_create_by_NID                     output.o
X509_NAME_ENTRY_create_by_OBJ                     output.o
X509_NAME_ENTRY_create_by_txt                     output.o
X509_NAME_ENTRY_dup                               output.o
X509_NAME_ENTRY_free                              output.o
X509_NAME_ENTRY_get_data                          output.o
X509_NAME_ENTRY_get_object                        output.o
X509_NAME_ENTRY_it                                output.o
X509_NAME_ENTRY_new                               output.o
X509_NAME_ENTRY_set_data                          output.o
X509_NAME_ENTRY_set_object                        output.o
X509_NAME_INTERNAL_it                             output.o
X509_NAME_add_entry                               output.o
X509_NAME_add_entry_by_NID                        output.o
X509_NAME_add_entry_by_OBJ                        output.o
X509_NAME_add_entry_by_txt                        output.o
X509_NAME_cmp                                     output.o
X509_NAME_delete_entry                            output.o
X509_NAME_digest                                  output.o
X509_NAME_dup                                     output.o
X509_NAME_entry_count                             output.o
X509_NAME_free                                    output.o
X509_NAME_get_entry                               output.o
X509_NAME_get_index_by_NID                        output.o
X509_NAME_get_index_by_OBJ                        output.o
X509_NAME_get_text_by_NID                         output.o
X509_NAME_get_text_by_OBJ                         output.o
X509_NAME_hash                                    output.o
X509_NAME_hash_old                                output.o
X509_NAME_it                                      output.o
X509_NAME_new                                     output.o
X509_NAME_oneline                                 output.o
X509_NAME_print                                   output.o
X509_NAME_print_ex                                output.o
X509_NAME_set                                     output.o
X509_OBJECT_free_contents                         output.o
X509_OBJECT_idx_by_subject                        output.o
X509_OBJECT_retrieve_by_subject                   output.o
X509_OBJECT_retrieve_match                        output.o
X509_OBJECT_up_ref_count                          output.o
X509_POLICY_NODE_print                            output.o
X509_PUBKEY_free                                  output.o
X509_PUBKEY_get                                   output.o
X509_PUBKEY_get0_param                            output.o
X509_PUBKEY_it                                    output.o
X509_PUBKEY_new                                   output.o
X509_PUBKEY_set                                   output.o
X509_PUBKEY_set0_param                            output.o
X509_PURPOSE_add                                  output.o
X509_PURPOSE_cleanup                              output.o
X509_PURPOSE_get0                                 output.o
X509_PURPOSE_get0_name                            output.o
X509_PURPOSE_get0_sname                           output.o
X509_PURPOSE_get_by_id                            output.o
X509_PURPOSE_get_by_sname                         output.o
X509_PURPOSE_get_count                            output.o
X509_PURPOSE_get_id                               output.o
X509_PURPOSE_get_trust                            output.o
X509_PURPOSE_set                                  output.o
X509_REQ_INFO_free                                output.o
X509_REQ_INFO_it                                  output.o
X509_REQ_INFO_new                                 output.o
X509_REQ_add1_attr                                output.o
X509_REQ_add1_attr_by_NID                         output.o
X509_REQ_add1_attr_by_OBJ                         output.o
X509_REQ_add1_attr_by_txt                         output.o
X509_REQ_add_extensions                           output.o
X509_REQ_add_extensions_nid                       output.o
X509_REQ_check_private_key                        output.o
X509_REQ_delete_attr                              output.o
X509_REQ_digest                                   output.o
X509_REQ_dup                                      output.o
X509_REQ_extension_nid                            output.o
X509_REQ_free                                     output.o
X509_REQ_get1_email                               output.o
X509_REQ_get_attr                                 output.o
X509_REQ_get_attr_by_NID                          output.o
X509_REQ_get_attr_by_OBJ                          output.o
X509_REQ_get_attr_count                           output.o
X509_REQ_get_extension_nids                       output.o
X509_REQ_get_extensions                           output.o
X509_REQ_get_pubkey                               output.o
X509_REQ_it                                       output.o
X509_REQ_new                                      output.o
X509_REQ_set_extension_nids                       output.o
X509_REQ_set_pubkey                               output.o
X509_REQ_set_subject_name                         output.o
X509_REQ_set_version                              output.o
X509_REQ_sign                                     output.o
X509_REQ_verify                                   output.o
X509_REVOKED_add1_ext_i2d                         output.o
X509_REVOKED_add_ext                              output.o
X509_REVOKED_delete_ext                           output.o
X509_REVOKED_free                                 output.o
X509_REVOKED_get_ext                              output.o
X509_REVOKED_get_ext_by_NID                       output.o
X509_REVOKED_get_ext_by_OBJ                       output.o
X509_REVOKED_get_ext_by_critical                  output.o
X509_REVOKED_get_ext_count                        output.o
X509_REVOKED_get_ext_d2i                          output.o
X509_REVOKED_it                                   output.o
X509_REVOKED_new                                  output.o
X509_SIG_free                                     output.o
X509_SIG_it                                       output.o
X509_SIG_new                                      output.o
X509_STORE_CTX_cleanup                            output.o
X509_STORE_CTX_free                               output.o
X509_STORE_CTX_get0_current_crl                   output.o
X509_STORE_CTX_get0_current_issuer                output.o
X509_STORE_CTX_get0_param                         output.o
X509_STORE_CTX_get0_parent_ctx                    output.o
X509_STORE_CTX_get0_policy_tree                   output.o
X509_STORE_CTX_get1_chain                         output.o
X509_STORE_CTX_get1_issuer                        output.o
X509_STORE_CTX_get_chain                          output.o
X509_STORE_CTX_get_current_cert                   output.o
X509_STORE_CTX_get_error                          output.o
X509_STORE_CTX_get_error_depth                    output.o
X509_STORE_CTX_get_ex_data                        output.o
X509_STORE_CTX_get_ex_new_index                   output.o
X509_STORE_CTX_get_explicit_policy                output.o
X509_STORE_CTX_init                               output.o
X509_STORE_CTX_new                                output.o
X509_STORE_CTX_purpose_inherit                    output.o
X509_STORE_CTX_set0_crls                          output.o
X509_STORE_CTX_set0_param                         output.o
X509_STORE_CTX_set_cert                           output.o
X509_STORE_CTX_set_chain                          output.o
X509_STORE_CTX_set_default                        output.o
X509_STORE_CTX_set_depth                          output.o
X509_STORE_CTX_set_error                          output.o
X509_STORE_CTX_set_ex_data                        output.o
X509_STORE_CTX_set_flags                          output.o
X509_STORE_CTX_set_purpose                        output.o
X509_STORE_CTX_set_time                           output.o
X509_STORE_CTX_set_trust                          output.o
X509_STORE_CTX_set_verify_cb                      output.o
X509_STORE_CTX_trusted_stack                      output.o
X509_STORE_add_cert                               output.o
X509_STORE_add_crl                                output.o
X509_STORE_add_lookup                             output.o
X509_STORE_free                                   output.o
X509_STORE_get1_certs                             output.o
X509_STORE_get1_crls                              output.o
X509_STORE_get_by_subject                         output.o
X509_STORE_new                                    output.o
X509_STORE_set1_param                             output.o
X509_STORE_set_depth                              output.o
X509_STORE_set_flags                              output.o
X509_STORE_set_purpose                            output.o
X509_STORE_set_trust                              output.o
X509_STORE_set_verify_cb                          output.o
X509_TRUST_add                                    output.o
X509_TRUST_cleanup                                output.o
X509_TRUST_get0                                   output.o
X509_TRUST_get0_name                              output.o
X509_TRUST_get_by_id                              output.o
X509_TRUST_get_count                              output.o
X509_TRUST_get_flags                              output.o
X509_TRUST_get_trust                              output.o
X509_TRUST_set                                    output.o
X509_TRUST_set_default                            output.o
X509_VAL_free                                     output.o
X509_VAL_it                                       output.o
X509_VAL_new                                      output.o
X509_VERIFY_PARAM_add0_policy                     output.o
X509_VERIFY_PARAM_add0_table                      output.o
X509_VERIFY_PARAM_clear_flags                     output.o
X509_VERIFY_PARAM_free                            output.o
X509_VERIFY_PARAM_get_depth                       output.o
X509_VERIFY_PARAM_get_flags                       output.o
X509_VERIFY_PARAM_inherit                         output.o
X509_VERIFY_PARAM_lookup                          output.o
X509_VERIFY_PARAM_new                             output.o
X509_VERIFY_PARAM_set1                            output.o
X509_VERIFY_PARAM_set1_name                       output.o
X509_VERIFY_PARAM_set1_policies                   output.o
X509_VERIFY_PARAM_set_depth                       output.o
X509_VERIFY_PARAM_set_flags                       output.o
X509_VERIFY_PARAM_set_purpose                     output.o
X509_VERIFY_PARAM_set_time                        output.o
X509_VERIFY_PARAM_set_trust                       output.o
X509_VERIFY_PARAM_table_cleanup                   output.o
X509_add1_ext_i2d                                 output.o
X509_add1_reject_object                           output.o
X509_add1_trust_object                            output.o
X509_add_ext                                      output.o
X509_alias_get0                                   output.o
X509_alias_set1                                   output.o
X509_check_akid                                   output.o
X509_check_ca                                     output.o
X509_check_issued                                 output.o
X509_check_private_key                            output.o
X509_check_purpose                                output.o
X509_check_trust                                  output.o
X509_cmp                                          output.o
X509_cmp_current_time                             output.o
X509_cmp_time                                     output.o
X509_delete_ext                                   output.o
X509_digest                                       output.o
X509_dup                                          output.o
X509_email_free                                   output.o
X509_find_by_issuer_and_serial                    output.o
X509_find_by_subject                              output.o
X509_free                                         output.o
X509_get0_pubkey_bitstr                           output.o
X509_get1_email                                   output.o
X509_get1_ocsp                                    output.o
X509_get_default_cert_area                        output.o
X509_get_default_cert_dir                         output.o
X509_get_default_cert_dir_env                     output.o
X509_get_default_cert_file                        output.o
X509_get_default_cert_file_env                    output.o
X509_get_default_private_dir                      output.o
X509_get_ex_data                                  output.o
X509_get_ex_new_index                             output.o
X509_get_ext                                      output.o
X509_get_ext_by_NID                               output.o
X509_get_ext_by_OBJ                               output.o
X509_get_ext_by_critical                          output.o
X509_get_ext_count                                output.o
X509_get_ext_d2i                                  output.o
X509_get_issuer_name                              output.o
X509_get_pubkey                                   output.o
X509_get_pubkey_parameters                        output.o
X509_get_serialNumber                             output.o
X509_get_subject_name                             output.o
X509_gmtime_adj                                   output.o
X509_issuer_and_serial_cmp                        output.o
X509_issuer_and_serial_hash                       output.o
X509_issuer_name_cmp                              output.o
X509_issuer_name_hash                             output.o
X509_issuer_name_hash_old                         output.o
X509_it                                           output.o
X509_keyid_get0                                   output.o
X509_keyid_set1                                   output.o
X509_new                                          output.o
X509_ocspid_print                                 output.o
X509_policy_check                                 output.o
X509_policy_level_get0_node                       output.o
X509_policy_level_node_count                      output.o
X509_policy_node_get0_parent                      output.o
X509_policy_node_get0_policy                      output.o
X509_policy_node_get0_qualifiers                  output.o
X509_policy_tree_free                             output.o
X509_policy_tree_get0_level                       output.o
X509_policy_tree_get0_policies                    output.o
X509_policy_tree_get0_user_policies               output.o
X509_policy_tree_level_count                      output.o
X509_print                                        output.o
X509_print_ex                                     output.o
X509_pubkey_digest                                output.o
X509_reject_clear                                 output.o
X509_set_ex_data                                  output.o
X509_sign                                         output.o
X509_signature_print                              output.o
X509_subject_name_cmp                             output.o
X509_subject_name_hash                            output.o
X509_subject_name_hash_old                        output.o
X509_supported_extension                          output.o
X509_time_adj                                     output.o
X509_time_adj_ex                                  output.o
X509_to_X509_REQ                                  output.o
X509_trust_clear                                  output.o
X509_verify                                       output.o
X509_verify_cert                                  output.o
X509_version                                      output.o
X509at_add1_attr                                  output.o
X509at_add1_attr_by_NID                           output.o
X509at_add1_attr_by_OBJ                           output.o
X509at_add1_attr_by_txt                           output.o
X509at_delete_attr                                output.o
X509at_get0_data_by_OBJ                           output.o
X509at_get_attr                                   output.o
X509at_get_attr_by_NID                            output.o
X509at_get_attr_by_OBJ                            output.o
X509at_get_attr_count                             output.o
X509v3_add_ext                                    output.o
X509v3_delete_ext                                 output.o
X509v3_get_ext                                    output.o
X509v3_get_ext_by_NID                             output.o
X509v3_get_ext_by_OBJ                             output.o
X509v3_get_ext_by_critical                        output.o
X509v3_get_ext_count                              output.o
X9_62_CHARACTERISTIC_TWO_free                     output.o
X9_62_CHARACTERISTIC_TWO_it                       output.o
X9_62_CHARACTERISTIC_TWO_new                      output.o
X9_62_CURVE_it                                    output.o
X9_62_FIELDID_it                                  output.o
X9_62_PENTANOMIAL_free                            output.o
X9_62_PENTANOMIAL_it                              output.o
X9_62_PENTANOMIAL_new                             output.o
ZLONG_it                                          output.o
_CONF_add_string                                  output.o
_CONF_free_data                                   output.o
_CONF_get_section                                 output.o
_CONF_get_section_values                          output.o
_CONF_get_string                                  output.o
_CONF_new_data                                    output.o
_CONF_new_section                                 output.o
__GNU_EH_FRAME_HDR                                bitvisor.elf
__initfunc_acpi_init_global                       output.o
__initfunc_acpi_init_paral                        output.o
__initfunc_ata_init                               output.o
__initfunc_beep_init_msg                          output.o
__initfunc_bnx_init                               output.o
__initfunc_cache_init_pass                        output.o
__initfunc_cache_init_pcpu                        output.o
__initfunc_cache_init_vcpu                        output.o
__initfunc_callrealmode_init_global               output.o
__initfunc_callrealmode_panic                     output.o
__initfunc_copy_minios                            output.o
__initfunc_core_init                              output.o
__initfunc_cpu_mmu_spt_init_global                output.o
__initfunc_cpu_mmu_spt_init_pcpu                  output.o
__initfunc_cpuid_init                             output.o
__initfunc_cpuid_pass_init                        output.o
__initfunc_create_pass_vm                         output.o
__initfunc_debug_on_shift_key                     output.o
__initfunc_echoctl_init_msg                       output.o
__initfunc_ehci_init                              output.o
__initfunc_end                                    output.o
__initfunc_exint_pass_init                        output.o
__initfunc_get_shiftflags                         output.o
__initfunc_gmm_pass_init                          output.o
__initfunc_idman_init                             output.o
__initfunc_idman_init_global                      output.o
__initfunc_idman_kernel_init                      output.o
__initfunc_ieee1394_hint                          output.o
__initfunc_ieee1394_init                          output.o
__initfunc_ieee1394_thunderbolt_conceal           output.o
__initfunc_ieee1394log_init                       output.o
__initfunc_install_int0x15_hook                   output.o
__initfunc_int_init_global                        output.o
__initfunc_int_wakeup                             output.o
__initfunc_io_io_init                             output.o
__initfunc_io_iopass_init                         output.o
__initfunc_iommu_setup                            output.o
__initfunc_keyboard_init_msg                      output.o
__initfunc_localapic_init                         output.o
__initfunc_localapic_init2                        output.o
__initfunc_mm_init_global                         output.o
__initfunc_mmio_debug                             output.o
__initfunc_mmio_init                              output.o
__initfunc_msg_init_global                        output.o
__initfunc_msr_init                               output.o
__initfunc_msr_pass_init                          output.o
__initfunc_net_main_init                          output.o
__initfunc_netapi_init                            output.o
__initfunc_nmi_pass_init                          output.o
__initfunc_nmi_pass_init_pcpu                     output.o
__initfunc_panic_init_global                      output.o
__initfunc_panic_init_global3                     output.o
__initfunc_panic_init_msg                         output.o
__initfunc_panic_init_pcpu                        output.o
__initfunc_pci_conceal_init                       output.o
__initfunc_pci_init                               output.o
__initfunc_pci_match_compat_init                  output.o
__initfunc_pci_monitor_init                       output.o
__initfunc_pci_monitor_init_msg                   output.o
__initfunc_print_boot_msg                         output.o
__initfunc_printf_init_global                     output.o
__initfunc_pro100_init                            output.o
__initfunc_process_init_ap                        output.o
__initfunc_process_init_global                    output.o
__initfunc_process_wakeup                         output.o
__initfunc_random_init_config0                    output.o
__initfunc_random_init_global                     output.o
__initfunc_reboot_init_msg                        output.o
__initfunc_resume_pro1000                         output.o
__initfunc_segment_init_global                    output.o
__initfunc_serial_init_msg                        output.o
__initfunc_setiohooks                             output.o
__initfunc_sleep_init_global                      output.o
__initfunc_sleep_init_msg                         output.o
__initfunc_start                                  output.o
__initfunc_storage_io_initfunc                    output.o
__initfunc_storage_kernel_init                    output.o
__initfunc_svm_panic                              output.o
__initfunc_sx_init_pass_init                      output.o
__initfunc_thread_init_global                     output.o
__initfunc_thread_init_pcpu                       output.o
__initfunc_time_init_dbsp                         output.o
__initfunc_time_init_global                       output.o
__initfunc_time_init_global_status                output.o
__initfunc_time_init_msg                          output.o
__initfunc_time_init_pcpu                         output.o
__initfunc_time_wakeup                            output.o
__initfunc_timer_init_global                      output.o
__initfunc_tty_init_global                        output.o
__initfunc_tty_init_global2                       output.o
__initfunc_tty_init_msg                           output.o
__initfunc_uhci_init                              output.o
__initfunc_unmap_user_area                        output.o
__initfunc_update_mtrr_and_pat                    output.o
__initfunc_vcpu_init_global                       output.o
__initfunc_vga_init                               output.o
__initfunc_virtualization_init_pcpu               output.o
__initfunc_vmmcall_boot_init                      output.o
__initfunc_vmmcall_dbgsh_init                     output.o
__initfunc_vmmcall_dbgsh_init_global              output.o
__initfunc_vmmcall_iccard_init                    output.o
__initfunc_vmmcall_init                           output.o
__initfunc_vmmcall_status_init                    output.o
__initfunc_vmmcall_status_init_global             output.o
__initfunc_vpn_kernel_init                        output.o
__initfunc_vpn_pro1000_init                       output.o
__initfunc_vramwrite_init_bsp                     output.o
__initfunc_vramwrite_init_msg                     output.o
__initfunc_vt_panic                               output.o
__initfunc_vt_register_status_callback            output.o
__initfunc_wait_for_create_pass_vm                output.o
__initfunc_x540_init                              output.o
__initfunc_xsetbv_init                            output.o
__initfunc_xsetbv_pass_init                       output.o
__process_builtin                                 output.o
__process_builtin_end                             output.o
_dprintf                                          output.o
_dprintft                                         output.o
_shadow_DES_check_key                             output.o
a2d_ASN1_OBJECT                                   output.o
a2i_ASN1_INTEGER                                  output.o
a2i_ASN1_STRING                                   output.o
a2i_GENERAL_NAME                                  output.o
a2i_IPADDRESS                                     output.o
a2i_IPADDRESS_NC                                  output.o
a2i_ipadd                                         output.o
acpi_dsdt_parse                                   output.o
acpi_dsdt_system_state                            output.o
acpi_iohook                                       output.o
acpi_poweroff                                     output.o
acpi_read_mcfg                                    output.o
acpi_reset                                        output.o
acpi_smi_hook                                     output.o
acpi_ssdt_parse                                   output.o
add_remap                                         output.o
aes_xts_init                                      output.o
ahci_config_read                                  output.o
ahci_config_write                                 output.o
ahci_new                                          output.o
alloc                                             output.o
alloc2                                            output.o
alloc_handler_descriptor                          output.o
alloc_page                                        output.o
alloc_pages                                       output.o
alloc_realmodemem                                 output.o
ap_start_addr                                     output.o
apic_available                                    output.o
apinit_lock                                       output.o
apinit_procs                                      output.o
apinitproc0                                       output.o
app_pkey_methods                                  output.o
asm_vmlaunch_regs_32                              output.o
asm_vmlaunch_regs_64                              output.o
asm_vmresume_regs_32                              output.o
asm_vmresume_regs_64                              output.o
asm_vmrun_regs_32                                 output.o
asm_vmrun_regs_64                                 output.o
asm_vmrun_regs_nested_32                          output.o
asm_vmrun_regs_nested_64                          output.o
asn1_Finish                                       output.o
asn1_GetSequence                                  output.o
asn1_add_error                                    output.o
asn1_const_Finish                                 output.o
asn1_do_adb                                       output.o
asn1_do_lock                                      output.o
asn1_enc_free                                     output.o
asn1_enc_init                                     output.o
asn1_enc_restore                                  output.o
asn1_enc_save                                     output.o
asn1_ex_c2i                                       output.o
asn1_ex_i2c                                       output.o
asn1_get_choice_selector                          output.o
asn1_get_field_ptr                                output.o
asn1_set_choice_selector                          output.o
asn1_template_print_ctx                           output.o
assertion_failed                                  output.o
ata_ahci_mode                                     output.o
ata_bm_handle_command                             output.o
ata_bm_handle_device_specific                     output.o
ata_bm_handle_prd_table                           output.o
ata_bm_handle_status                              output.o
ata_bm_handler                                    output.o
ata_bm_handler_table                              output.o
ata_channel_lock                                  output.o
ata_channel_unlock                                output.o
ata_cmdblk_handler                                output.o
ata_cmdblk_handler_table                          output.o
ata_config_read                                   output.o
ata_config_write                                  output.o
ata_ctlblk_handler                                output.o
ata_ctlblk_handler_table                          output.o
ata_get_cmd_type                                  output.o
ata_handle_queued_status                          output.o
ata_init_io_handler                               output.o
ata_init_vendor                                   output.o
ata_set_bm_handler                                output.o
ata_set_cmdblk_handler                            output.o
ata_set_ctlblk_handler                            output.o
atapi_handle_cmd_packet                           output.o
atapi_handle_config_data                          output.o
atapi_handle_interrupt_reason                     output.o
atapi_handle_packet_data                          output.o
atapi_handle_pio_identify_packet                  output.o
auto_reboot                                       output.o
autoip_arp_reply                                  output.o
autoip_network_changed                            output.o
autoip_set_struct                                 output.o
autoip_start                                      output.o
autoip_stop                                       output.o
autoip_tmr                                        output.o
backtrace                                         output.o
beep_off                                          output.o
beep_on                                           output.o
beep_set_freq                                     output.o
bn_add_part_words                                 output.o
bn_add_words                                      output.o
bn_cmp_part_words                                 output.o
bn_cmp_words                                      output.o
bn_div_words                                      output.o
bn_dup_expand                                     output.o
bn_expand2                                        output.o
bn_mul_add_words                                  output.o
bn_mul_comba4                                     output.o
bn_mul_comba8                                     output.o
bn_mul_high                                       output.o
bn_mul_low_normal                                 output.o
bn_mul_low_recursive                              output.o
bn_mul_normal                                     output.o
bn_mul_part_recursive                             output.o
bn_mul_recursive                                  output.o
bn_mul_words                                      output.o
bn_sqr_comba4                                     output.o
bn_sqr_comba8                                     output.o
bn_sqr_normal                                     output.o
bn_sqr_recursive                                  output.o
bn_sqr_words                                      output.o
bn_sub_part_words                                 output.o
bn_sub_words                                      output.o
bss                                               output.o
c2i_ASN1_BIT_STRING                               output.o
c2i_ASN1_INTEGER                                  output.o
c2i_ASN1_OBJECT                                   output.o
cache_get_attr                                    output.o
cache_get_gmsr_amd                                output.o
cache_get_gmtrr                                   output.o
cache_get_gmtrr_attr                              output.o
cache_get_gmtrr_type                              output.o
cache_get_gmtrrcap                                output.o
cache_get_gpat                                    output.o
cache_gmtrr_type_equal                            output.o
cache_set_gmsr_amd                                output.o
cache_set_gmtrr                                   output.o
cache_set_gpat                                    output.o
call_cpuid                                        output.o
call_initfunc                                     output.o
call_io                                           output.o
call_read_msr                                     output.o
call_uefi_allocate_pages                          output.o
call_uefi_free_pages                              output.o
call_uefi_get_memory_map                          output.o
call_uefi_getkey                                  output.o
call_uefi_putchar                                 output.o
call_write_msr                                    output.o
call_xsetbv                                       output.o
callfunc_and_getint                               output.o
callrealmode_bootcd_getstatus                     output.o
callrealmode_disk_readlba                         output.o
callrealmode_disk_readmbr                         output.o
callrealmode_end                                  output.o
callrealmode_endofcodeaddr                        output.o
callrealmode_getfontinfo                          output.o
callrealmode_getshiftflags                        output.o
callrealmode_getsysmemmap                         output.o
callrealmode_printmsg                             output.o
callrealmode_reboot                               output.o
callrealmode_setcursorpos                         output.o
callrealmode_setvideomode                         output.o
callrealmode_start                                output.o
callrealmode_start2                               output.o
callrealmode_startkernel32                        output.o
callrealmode_tcgbios                              output.o
callrealmode_usevcpu                              output.o
calluefi                                          output.o
calluefi_uefi_cr3                                 output.o
calluefi_uefi_gdtr                                output.o
calluefi_uefi_idtr                                output.o
calluefi_uefi_ldtr                                output.o
calluefi_uefi_sregs                               output.o
cancel_sleep                                      output.o
check_defer                                       output.o
chelp_abort                                       output.o
chelp_bsearch                                     output.o
chelp_div_64_32_32                                output.o
chelp_div_64_32_64                                output.o
chelp_free                                        output.o
chelp_inited                                      output.o
chelp_isalnum                                     output.o
chelp_isalpha                                     output.o
chelp_isdigit                                     output.o
chelp_islower                                     output.o
chelp_isspace                                     output.o
chelp_isupper                                     output.o
chelp_isxdigit                                    output.o
chelp_malloc                                      output.o
chelp_memchr                                      output.o
chelp_memcmp                                      output.o
chelp_memcpy                                      output.o
chelp_memmove                                     output.o
chelp_memset                                      output.o
chelp_mod_64_32_32                                output.o
chelp_mul_64_64_64                                output.o
chelp_print                                       output.o
chelp_printf                                      output.o
chelp_qsort                                       output.o
chelp_realloc                                     output.o
chelp_snprintf                                    output.o
chelp_sprintf                                     output.o
chelp_strcat                                      output.o
chelp_strchr                                      output.o
chelp_strcmp                                      output.o
chelp_strcpy                                      output.o
chelp_stricmp                                     output.o
chelp_strlen                                      output.o
chelp_strncasecmp                                 output.o
chelp_strncmp                                     output.o
chelp_strncpy                                     output.o
chelp_strrchr                                     output.o
chelp_strtol                                      output.o
chelp_strtoul                                     output.o
chelp_strtoul_ex                                  output.o
chelp_swap                                        output.o
chelp_tolower                                     output.o
chelp_toupper                                     output.o
cleanse_ctr                                       output.o
clflush_size                                      output.o
cmpxchg_gphys_l                                   output.o
cmpxchg_gphys_q                                   output.o
cmpxchg_hphys_l                                   output.o
cmpxchg_hphys_q                                   output.o
cms_Data_create                                   output.o
cms_DigestAlgorithm_find_ctx                      output.o
cms_DigestAlgorithm_init_bio                      output.o
cms_DigestAlgorithm_set                           output.o
cms_DigestedData_create                           output.o
cms_DigestedData_do_final                         output.o
cms_DigestedData_init_bio                         output.o
cms_EncryptedContent_init                         output.o
cms_EncryptedContent_init_bio                     output.o
cms_EncryptedData_init_bio                        output.o
cms_EnvelopedData_init_bio                        output.o
cms_SignedData_final                              output.o
cms_SignedData_init_bio                           output.o
cms_SignerIdentifier_cert_cmp                     output.o
cms_SignerIdentifier_get0_signer_id               output.o
cms_content_bio                                   output.o
cms_set1_SignerIdentifier                         output.o
code                                              output.o
codeend                                           output.o
config                                            output.o
copy_bootsector                                   output.o
copy_uefi_bootcode                                output.o
core_init                                         output.o
core_io_handle_default                            output.o
core_io_modify_handler                            output.o
core_io_register_handler                          output.o
core_io_unregister_handler                        output.o
core_mm_read_guest_phys                           output.o
core_mm_write_guest_phys                          output.o
cpu_emul_cli                                      output.o
cpu_emul_cpuid                                    output.o
cpu_emul_hlt                                      output.o
cpu_emul_rdmsr                                    output.o
cpu_emul_realmode_int                             output.o
cpu_emul_sti                                      output.o
cpu_emul_wrmsr                                    output.o
cpu_emul_xsetbv                                   output.o
cpu_interpreter                                   output.o
cpu_mmu_get_pte                                   output.o
cpu_mmu_spt_clear_all                             output.o
cpu_mmu_spt_extern_mapsearch                      output.o
cpu_mmu_spt_init                                  output.o
cpu_mmu_spt_invalidate                            output.o
cpu_mmu_spt_map_1mb                               output.o
cpu_mmu_spt_pagefault                             output.o
cpu_mmu_spt_tlbflush                              output.o
cpu_mmu_spt_updatecr3                             output.o
cpu_seg_read_b                                    output.o
cpu_seg_read_l                                    output.o
cpu_seg_read_q                                    output.o
cpu_seg_read_w                                    output.o
cpu_seg_write_b                                   output.o
cpu_seg_write_l                                   output.o
cpu_seg_write_q                                   output.o
cpu_seg_write_w                                   output.o
cpu_stack_get                                     output.o
cpu_stack_pop                                     output.o
cpu_stack_push                                    output.o
cpu_stack_set                                     output.o
cpuinit_end                                       output.o
cpuinit_start                                     output.o
crc32                                             output.o
create_dom                                        output.o
crypt_sys_rsa_sign                                output.o
crypto_find                                       output.o
crypto_init                                       output.o
crypto_none_init                                  output.o
crypto_register                                   output.o
current_header                                    output.o
current_iphdr_dest                                output.o
current_iphdr_src                                 output.o
current_netif                                     output.o
curthread                                         output.o
d2i_ACCESS_DESCRIPTION                            output.o
d2i_ASN1_BIT_STRING                               output.o
d2i_ASN1_BMPSTRING                                output.o
d2i_ASN1_BOOLEAN                                  output.o
d2i_ASN1_ENUMERATED                               output.o
d2i_ASN1_GENERALIZEDTIME                          output.o
d2i_ASN1_GENERALSTRING                            output.o
d2i_ASN1_IA5STRING                                output.o
d2i_ASN1_INTEGER                                  output.o
d2i_ASN1_NULL                                     output.o
d2i_ASN1_OBJECT                                   output.o
d2i_ASN1_OCTET_STRING                             output.o
d2i_ASN1_PRINTABLE                                output.o
d2i_ASN1_PRINTABLESTRING                          output.o
d2i_ASN1_SEQUENCE_ANY                             output.o
d2i_ASN1_SET                                      output.o
d2i_ASN1_SET_ANY                                  output.o
d2i_ASN1_T61STRING                                output.o
d2i_ASN1_TIME                                     output.o
d2i_ASN1_TYPE                                     output.o
d2i_ASN1_UINTEGER                                 output.o
d2i_ASN1_UNIVERSALSTRING                          output.o
d2i_ASN1_UTCTIME                                  output.o
d2i_ASN1_UTF8STRING                               output.o
d2i_ASN1_VISIBLESTRING                            output.o
d2i_ASN1_bytes                                    output.o
d2i_ASN1_type_bytes                               output.o
d2i_AUTHORITY_INFO_ACCESS                         output.o
d2i_AUTHORITY_KEYID                               output.o
d2i_AutoPrivateKey                                output.o
d2i_BASIC_CONSTRAINTS                             output.o
d2i_CERTIFICATEPOLICIES                           output.o
d2i_CMS_ContentInfo                               output.o
d2i_CMS_bio                                       output.o
d2i_CRL_DIST_POINTS                               output.o
d2i_DHparams                                      output.o
d2i_DIRECTORYSTRING                               output.o
d2i_DISPLAYTEXT                                   output.o
d2i_DIST_POINT                                    output.o
d2i_DIST_POINT_NAME                               output.o
d2i_DSAPrivateKey                                 output.o
d2i_DSAPrivateKey_bio                             output.o
d2i_DSAPublicKey                                  output.o
d2i_DSA_PUBKEY                                    output.o
d2i_DSA_PUBKEY_bio                                output.o
d2i_DSA_SIG                                       output.o
d2i_DSAparams                                     output.o
d2i_ECDSA_SIG                                     output.o
d2i_ECPKPARAMETERS                                output.o
d2i_ECPKParameters                                output.o
d2i_ECParameters                                  output.o
d2i_ECPrivateKey                                  output.o
d2i_ECPrivateKey_bio                              output.o
d2i_EC_PRIVATEKEY                                 output.o
d2i_EC_PUBKEY                                     output.o
d2i_EC_PUBKEY_bio                                 output.o
d2i_EDIPARTYNAME                                  output.o
d2i_EXTENDED_KEY_USAGE                            output.o
d2i_GENERAL_NAME                                  output.o
d2i_GENERAL_NAMES                                 output.o
d2i_ISSUING_DIST_POINT                            output.o
d2i_NETSCAPE_CERT_SEQUENCE                        output.o
d2i_NETSCAPE_SPKAC                                output.o
d2i_NETSCAPE_SPKI                                 output.o
d2i_NOTICEREF                                     output.o
d2i_OCSP_BASICRESP                                output.o
d2i_OCSP_CERTID                                   output.o
d2i_OCSP_CERTSTATUS                               output.o
d2i_OCSP_CRLID                                    output.o
d2i_OCSP_ONEREQ                                   output.o
d2i_OCSP_REQINFO                                  output.o
d2i_OCSP_REQUEST                                  output.o
d2i_OCSP_RESPBYTES                                output.o
d2i_OCSP_RESPDATA                                 output.o
d2i_OCSP_RESPID                                   output.o
d2i_OCSP_RESPONSE                                 output.o
d2i_OCSP_REVOKEDINFO                              output.o
d2i_OCSP_SERVICELOC                               output.o
d2i_OCSP_SIGNATURE                                output.o
d2i_OCSP_SINGLERESP                               output.o
d2i_OTHERNAME                                     output.o
d2i_PBE2PARAM                                     output.o
d2i_PBEPARAM                                      output.o
d2i_PBKDF2PARAM                                   output.o
d2i_PKCS12                                        output.o
d2i_PKCS12_BAGS                                   output.o
d2i_PKCS12_MAC_DATA                               output.o
d2i_PKCS12_SAFEBAG                                output.o
d2i_PKCS12_bio                                    output.o
d2i_PKCS7                                         output.o
d2i_PKCS7_DIGEST                                  output.o
d2i_PKCS7_ENCRYPT                                 output.o
d2i_PKCS7_ENC_CONTENT                             output.o
d2i_PKCS7_ENVELOPE                                output.o
d2i_PKCS7_ISSUER_AND_SERIAL                       output.o
d2i_PKCS7_RECIP_INFO                              output.o
d2i_PKCS7_SIGNED                                  output.o
d2i_PKCS7_SIGNER_INFO                             output.o
d2i_PKCS7_SIGN_ENVELOPE                           output.o
d2i_PKCS7_bio                                     output.o
d2i_PKCS8PrivateKey_bio                           output.o
d2i_PKCS8_PRIV_KEY_INFO                           output.o
d2i_PKCS8_PRIV_KEY_INFO_bio                       output.o
d2i_PKCS8_bio                                     output.o
d2i_PKEY_USAGE_PERIOD                             output.o
d2i_POLICYINFO                                    output.o
d2i_POLICYQUALINFO                                output.o
d2i_PROXY_CERT_INFO_EXTENSION                     output.o
d2i_PROXY_POLICY                                  output.o
d2i_PUBKEY                                        output.o
d2i_PUBKEY_bio                                    output.o
d2i_PrivateKey                                    output.o
d2i_PrivateKey_bio                                output.o
d2i_RSAPrivateKey                                 output.o
d2i_RSAPrivateKey_bio                             output.o
d2i_RSAPublicKey                                  output.o
d2i_RSAPublicKey_bio                              output.o
d2i_RSA_PUBKEY                                    output.o
d2i_RSA_PUBKEY_bio                                output.o
d2i_SXNET                                         output.o
d2i_SXNETID                                       output.o
d2i_USERNOTICE                                    output.o
d2i_X509                                          output.o
d2i_X509_ALGOR                                    output.o
d2i_X509_ALGORS                                   output.o
d2i_X509_ATTRIBUTE                                output.o
d2i_X509_AUX                                      output.o
d2i_X509_CERT_AUX                                 output.o
d2i_X509_CERT_PAIR                                output.o
d2i_X509_CINF                                     output.o
d2i_X509_CRL                                      output.o
d2i_X509_CRL_INFO                                 output.o
d2i_X509_CRL_bio                                  output.o
d2i_X509_EXTENSION                                output.o
d2i_X509_EXTENSIONS                               output.o
d2i_X509_NAME                                     output.o
d2i_X509_NAME_ENTRY                               output.o
d2i_X509_PUBKEY                                   output.o
d2i_X509_REQ                                      output.o
d2i_X509_REQ_INFO                                 output.o
d2i_X509_REQ_bio                                  output.o
d2i_X509_REVOKED                                  output.o
d2i_X509_SIG                                      output.o
d2i_X509_VAL                                      output.o
d2i_X509_bio                                      output.o
dataend                                           output.o
deactivate_and_delete_urb                         output.o
debug_gdb                                         output.o
debug_iohook                                      output.o
debug_msgregister                                 output.o
debug_msgunregister                               output.o
decryptcfg                                        output.o
default_pctx                                      output.o
dh_asn1_meth                                      output.o
dh_pkey_meth                                      output.o
dhcp_cleanup                                      output.o
dhcp_coarse_tmr                                   output.o
dhcp_fine_tmr                                     output.o
dhcp_inform                                       output.o
dhcp_network_changed                              output.o
dhcp_release                                      output.o
dhcp_renew                                        output.o
dhcp_rx_options_given                             output.o
dhcp_rx_options_val                               output.o
dhcp_set_struct                                   output.o
dhcp_start                                        output.o
dhcp_stop                                         output.o
disable_apic                                      output.o
dns_gethostbyname                                 output.o
dns_getserver                                     output.o
dns_init                                          output.o
dns_setserver                                     output.o
dns_tmr                                           output.o
do_exint_pass                                     output.o
do_externalint_enable                             output.o
do_io_nothing                                     output.o
do_iopass_default                                 output.o
do_panic_reboot                                   output.o
dom_io                                            output.o
dprintf_port                                      output.o
drhd_list_head                                    output.o
dsa_asn1_meths                                    output.o
dsa_builtin_paramgen                              output.o
dsa_pkey_meth                                     output.o
dsa_pub_internal_it                               output.o
dump_frame                                        output.o
dump_qh                                           output.o
dump_td                                           output.o
dump_td_byvirt                                    output.o
dwReaders                                         output.o
e801_fake_ax                                      output.o
e801_fake_bx                                      output.o
ec_GF2m_have_precompute_mult                      output.o
ec_GF2m_precompute_mult                           output.o
ec_GF2m_simple_add                                output.o
ec_GF2m_simple_cmp                                output.o
ec_GF2m_simple_dbl                                output.o
ec_GF2m_simple_field_div                          output.o
ec_GF2m_simple_field_mul                          output.o
ec_GF2m_simple_field_sqr                          output.o
ec_GF2m_simple_group_check_discriminant           output.o
ec_GF2m_simple_group_clear_finish                 output.o
ec_GF2m_simple_group_copy                         output.o
ec_GF2m_simple_group_finish                       output.o
ec_GF2m_simple_group_get_curve                    output.o
ec_GF2m_simple_group_get_degree                   output.o
ec_GF2m_simple_group_init                         output.o
ec_GF2m_simple_group_set_curve                    output.o
ec_GF2m_simple_invert                             output.o
ec_GF2m_simple_is_at_infinity                     output.o
ec_GF2m_simple_is_on_curve                        output.o
ec_GF2m_simple_make_affine                        output.o
ec_GF2m_simple_mul                                output.o
ec_GF2m_simple_oct2point                          output.o
ec_GF2m_simple_point2oct                          output.o
ec_GF2m_simple_point_clear_finish                 output.o
ec_GF2m_simple_point_copy                         output.o
ec_GF2m_simple_point_finish                       output.o
ec_GF2m_simple_point_get_affine_coordinates       output.o
ec_GF2m_simple_point_init                         output.o
ec_GF2m_simple_point_set_affine_coordinates       output.o
ec_GF2m_simple_point_set_to_infinity              output.o
ec_GF2m_simple_points_make_affine                 output.o
ec_GF2m_simple_set_compressed_coordinates         output.o
ec_GFp_mont_field_decode                          output.o
ec_GFp_mont_field_encode                          output.o
ec_GFp_mont_field_mul                             output.o
ec_GFp_mont_field_set_to_one                      output.o
ec_GFp_mont_field_sqr                             output.o
ec_GFp_mont_group_clear_finish                    output.o
ec_GFp_mont_group_copy                            output.o
ec_GFp_mont_group_finish                          output.o
ec_GFp_mont_group_init                            output.o
ec_GFp_mont_group_set_curve                       output.o
ec_GFp_nist_field_mul                             output.o
ec_GFp_nist_field_sqr                             output.o
ec_GFp_nist_group_copy                            output.o
ec_GFp_nist_group_set_curve                       output.o
ec_GFp_simple_add                                 output.o
ec_GFp_simple_cmp                                 output.o
ec_GFp_simple_dbl                                 output.o
ec_GFp_simple_field_mul                           output.o
ec_GFp_simple_field_sqr                           output.o
ec_GFp_simple_get_Jprojective_coordinates_GFp     output.o
ec_GFp_simple_group_check_discriminant            output.o
ec_GFp_simple_group_clear_finish                  output.o
ec_GFp_simple_group_copy                          output.o
ec_GFp_simple_group_finish                        output.o
ec_GFp_simple_group_get_curve                     output.o
ec_GFp_simple_group_get_degree                    output.o
ec_GFp_simple_group_init                          output.o
ec_GFp_simple_group_set_curve                     output.o
ec_GFp_simple_invert                              output.o
ec_GFp_simple_is_at_infinity                      output.o
ec_GFp_simple_is_on_curve                         output.o
ec_GFp_simple_make_affine                         output.o
ec_GFp_simple_oct2point                           output.o
ec_GFp_simple_point2oct                           output.o
ec_GFp_simple_point_clear_finish                  output.o
ec_GFp_simple_point_copy                          output.o
ec_GFp_simple_point_finish                        output.o
ec_GFp_simple_point_get_affine_coordinates        output.o
ec_GFp_simple_point_init                          output.o
ec_GFp_simple_point_set_affine_coordinates        output.o
ec_GFp_simple_point_set_to_infinity               output.o
ec_GFp_simple_points_make_affine                  output.o
ec_GFp_simple_set_Jprojective_coordinates_GFp     output.o
ec_GFp_simple_set_compressed_coordinates          output.o
ec_pkey_meth                                      output.o
ec_wNAF_have_precompute_mult                      output.o
ec_wNAF_mul                                       output.o
ec_wNAF_precompute_mult                           output.o
ecdh_check                                        output.o
ecdsa_check                                       output.o
echo_client_init                                  output.o
echo_client_send                                  output.o
echo_server_init                                  output.o
eckey_asn1_meth                                   output.o
ehci_check_advance                                output.o
ehci_check_urb_advance                            output.o
ehci_cleanup_urbs                                 output.o
ehci_conceal_portroute                            output.o
ehci_deactivate_urb                               output.o
ehci_dump_alist                                   output.o
ehci_dump_all                                     output.o
ehci_dump_async                                   output.o
ehci_dump_qtd                                     output.o
ehci_dump_qtdm                                    output.o
ehci_dump_urb                                     output.o
ehci_dump_urblist                                 output.o
ehci_end_monitor_async                            output.o
ehci_host                                         output.o
ehci_init                                         output.o
ehci_monitor_async_list                           output.o
ehci_shadow_async_list                            output.o
ehci_shadow_buffer                                output.o
ehci_submit_bulk                                  output.o
ehci_submit_control                               output.o
ehci_submit_interrupt                             output.o
end                                               output.o
entry                                             output.o
entry_pd                                          output.o
entry_pd0                                         output.o
entry_pdp                                         output.o
etharp_cleanup_netif                              output.o
etharp_find_addr                                  output.o
etharp_output                                     output.o
etharp_query                                      output.o
etharp_raw                                        output.o
etharp_request                                    output.o
etharp_tmr                                        output.o
ethbroadcast                                      output.o
ethernet_input                                    output.o
ethzero                                           output.o
evp_pkey_set_cb_translate                         output.o
exint_pass_intr_alloc                             output.o
exint_pass_intr_free                              output.o
exitprocess                                       output.o
fill_pagetable                                    output.o
free                                              output.o
free_config_descriptors                           output.o
free_device                                       output.o
free_page                                         output.o
free_page_phys                                    output.o
g_rgSCardT0Pci                                    output.o
g_rgSCardT1Pci                                    output.o
get_acpi_time                                     output.o
get_acpi_time_raw                                 output.o
get_cpu_id                                        output.o
get_cpu_time                                      output.o
get_gurb_by_address                               output.o
get_idman_session                                 output.o
get_seg_access_rights                             output.o
get_seg_base                                      output.o
get_time                                          output.o
getfakesysmemmap                                  output.o
getsysmemmap                                      output.o
gmm_pass_getforcemap                              output.o
gmm_pass_gp2hp                                    output.o
gmm_pass_gp2hp_2m                                 output.o
gs_current                                        output.o
gs_currentcpu                                     output.o
gs_init_count                                     output.o
gs_inthandling                                    output.o
gs_nmi                                            output.o
gs_syscallstack                                   output.o
guest_int0x15_e801_fake_ax                        output.o
guest_int0x15_e801_fake_bx                        output.o
guest_int0x15_e820_data_minus0x18                 output.o
guest_int0x15_e820_end                            output.o
guest_int0x15_hook                                output.o
guest_int0x15_hook_end                            output.o
guest_int0x15_orig                                output.o
hContext                                          output.o
hObjectCnt                                        output.o
hSessionCnt                                       output.o
handle_connect_status                             output.o
handle_init_to_bsp                                output.o
handle_port_reset                                 output.o
handler_descriptor                                output.o
handler_descriptor_lock                           output.o
head                                              output.o
hex_to_string                                     output.o
hmac_asn1_meth                                    output.o
hmac_pkey_meth                                    output.o
hub_portdevice_register                           output.o
i2a_ACCESS_DESCRIPTION                            output.o
i2a_ASN1_INTEGER                                  output.o
i2a_ASN1_OBJECT                                   output.o
i2a_ASN1_STRING                                   output.o
i2c_ASN1_BIT_STRING                               output.o
i2c_ASN1_INTEGER                                  output.o
i2d_ACCESS_DESCRIPTION                            output.o
i2d_ASN1_BIT_STRING                               output.o
i2d_ASN1_BMPSTRING                                output.o
i2d_ASN1_BOOLEAN                                  output.o
i2d_ASN1_ENUMERATED                               output.o
i2d_ASN1_GENERALIZEDTIME                          output.o
i2d_ASN1_GENERALSTRING                            output.o
i2d_ASN1_IA5STRING                                output.o
i2d_ASN1_INTEGER                                  output.o
i2d_ASN1_NULL                                     output.o
i2d_ASN1_OBJECT                                   output.o
i2d_ASN1_OCTET_STRING                             output.o
i2d_ASN1_PRINTABLE                                output.o
i2d_ASN1_PRINTABLESTRING                          output.o
i2d_ASN1_SEQUENCE_ANY                             output.o
i2d_ASN1_SET                                      output.o
i2d_ASN1_SET_ANY                                  output.o
i2d_ASN1_T61STRING                                output.o
i2d_ASN1_TIME                                     output.o
i2d_ASN1_TYPE                                     output.o
i2d_ASN1_UNIVERSALSTRING                          output.o
i2d_ASN1_UTCTIME                                  output.o
i2d_ASN1_UTF8STRING                               output.o
i2d_ASN1_VISIBLESTRING                            output.o
i2d_ASN1_bio_stream                               output.o
i2d_ASN1_bytes                                    output.o
i2d_AUTHORITY_INFO_ACCESS                         output.o
i2d_AUTHORITY_KEYID                               output.o
i2d_BASIC_CONSTRAINTS                             output.o
i2d_CERTIFICATEPOLICIES                           output.o
i2d_CMS_ContentInfo                               output.o
i2d_CMS_bio                                       output.o
i2d_CMS_bio_stream                                output.o
i2d_CRL_DIST_POINTS                               output.o
i2d_DHparams                                      output.o
i2d_DIRECTORYSTRING                               output.o
i2d_DISPLAYTEXT                                   output.o
i2d_DIST_POINT                                    output.o
i2d_DIST_POINT_NAME                               output.o
i2d_DSAPrivateKey                                 output.o
i2d_DSAPrivateKey_bio                             output.o
i2d_DSAPublicKey                                  output.o
i2d_DSA_PUBKEY                                    output.o
i2d_DSA_PUBKEY_bio                                output.o
i2d_DSA_SIG                                       output.o
i2d_DSAparams                                     output.o
i2d_ECDSA_SIG                                     output.o
i2d_ECPKPARAMETERS                                output.o
i2d_ECPKParameters                                output.o
i2d_ECParameters                                  output.o
i2d_ECPrivateKey                                  output.o
i2d_ECPrivateKey_bio                              output.o
i2d_EC_PRIVATEKEY                                 output.o
i2d_EC_PUBKEY                                     output.o
i2d_EC_PUBKEY_bio                                 output.o
i2d_EDIPARTYNAME                                  output.o
i2d_EXTENDED_KEY_USAGE                            output.o
i2d_GENERAL_NAME                                  output.o
i2d_GENERAL_NAMES                                 output.o
i2d_ISSUING_DIST_POINT                            output.o
i2d_NETSCAPE_CERT_SEQUENCE                        output.o
i2d_NETSCAPE_SPKAC                                output.o
i2d_NETSCAPE_SPKI                                 output.o
i2d_NOTICEREF                                     output.o
i2d_OCSP_BASICRESP                                output.o
i2d_OCSP_CERTID                                   output.o
i2d_OCSP_CERTSTATUS                               output.o
i2d_OCSP_CRLID                                    output.o
i2d_OCSP_ONEREQ                                   output.o
i2d_OCSP_REQINFO                                  output.o
i2d_OCSP_REQUEST                                  output.o
i2d_OCSP_RESPBYTES                                output.o
i2d_OCSP_RESPDATA                                 output.o
i2d_OCSP_RESPID                                   output.o
i2d_OCSP_RESPONSE                                 output.o
i2d_OCSP_REVOKEDINFO                              output.o
i2d_OCSP_SERVICELOC                               output.o
i2d_OCSP_SIGNATURE                                output.o
i2d_OCSP_SINGLERESP                               output.o
i2d_OTHERNAME                                     output.o
i2d_PBE2PARAM                                     output.o
i2d_PBEPARAM                                      output.o
i2d_PBKDF2PARAM                                   output.o
i2d_PKCS12                                        output.o
i2d_PKCS12_BAGS                                   output.o
i2d_PKCS12_MAC_DATA                               output.o
i2d_PKCS12_SAFEBAG                                output.o
i2d_PKCS12_bio                                    output.o
i2d_PKCS7                                         output.o
i2d_PKCS7_DIGEST                                  output.o
i2d_PKCS7_ENCRYPT                                 output.o
i2d_PKCS7_ENC_CONTENT                             output.o
i2d_PKCS7_ENVELOPE                                output.o
i2d_PKCS7_ISSUER_AND_SERIAL                       output.o
i2d_PKCS7_NDEF                                    output.o
i2d_PKCS7_RECIP_INFO                              output.o
i2d_PKCS7_SIGNED                                  output.o
i2d_PKCS7_SIGNER_INFO                             output.o
i2d_PKCS7_SIGN_ENVELOPE                           output.o
i2d_PKCS7_bio                                     output.o
i2d_PKCS8PrivateKeyInfo_bio                       output.o
i2d_PKCS8PrivateKey_bio                           output.o
i2d_PKCS8PrivateKey_nid_bio                       output.o
i2d_PKCS8_PRIV_KEY_INFO                           output.o
i2d_PKCS8_PRIV_KEY_INFO_bio                       output.o
i2d_PKCS8_bio                                     output.o
i2d_PKEY_USAGE_PERIOD                             output.o
i2d_POLICYINFO                                    output.o
i2d_POLICYQUALINFO                                output.o
i2d_PROXY_CERT_INFO_EXTENSION                     output.o
i2d_PROXY_POLICY                                  output.o
i2d_PUBKEY                                        output.o
i2d_PUBKEY_bio                                    output.o
i2d_PrivateKey                                    output.o
i2d_PrivateKey_bio                                output.o
i2d_RSAPrivateKey                                 output.o
i2d_RSAPrivateKey_bio                             output.o
i2d_RSAPublicKey                                  output.o
i2d_RSAPublicKey_bio                              output.o
i2d_RSA_PUBKEY                                    output.o
i2d_RSA_PUBKEY_bio                                output.o
i2d_SXNET                                         output.o
i2d_SXNETID                                       output.o
i2d_USERNOTICE                                    output.o
i2d_X509                                          output.o
i2d_X509_ALGOR                                    output.o
i2d_X509_ALGORS                                   output.o
i2d_X509_ATTRIBUTE                                output.o
i2d_X509_AUX                                      output.o
i2d_X509_CERT_AUX                                 output.o
i2d_X509_CERT_PAIR                                output.o
i2d_X509_CINF                                     output.o
i2d_X509_CRL                                      output.o
i2d_X509_CRL_INFO                                 output.o
i2d_X509_CRL_bio                                  output.o
i2d_X509_EXTENSION                                output.o
i2d_X509_EXTENSIONS                               output.o
i2d_X509_NAME                                     output.o
i2d_X509_NAME_ENTRY                               output.o
i2d_X509_PUBKEY                                   output.o
i2d_X509_REQ                                      output.o
i2d_X509_REQ_INFO                                 output.o
i2d_X509_REQ_bio                                  output.o
i2d_X509_REVOKED                                  output.o
i2d_X509_SIG                                      output.o
i2d_X509_VAL                                      output.o
i2d_X509_bio                                      output.o
i2o_ECPublicKey                                   output.o
i2s_ASN1_ENUMERATED                               output.o
i2s_ASN1_ENUMERATED_TABLE                         output.o
i2s_ASN1_INTEGER                                  output.o
i2s_ASN1_OCTET_STRING                             output.o
i2t_ASN1_OBJECT                                   output.o
i2v_ASN1_BIT_STRING                               output.o
i2v_GENERAL_NAME                                  output.o
i2v_GENERAL_NAMES                                 output.o
icmp_dest_unreach                                 output.o
icmp_input                                        output.o
icmp_time_exceeded                                output.o
idea_cbc_encrypt                                  output.o
idea_cfb64_encrypt                                output.o
idea_ecb_encrypt                                  output.o
idea_encrypt                                      output.o
idea_ofb64_encrypt                                output.o
idea_options                                      output.o
idea_set_decrypt_key                              output.o
idea_set_encrypt_key                              output.o
idman_reinit2                                     output.o
idman_reinit_session                              output.o
idman_user_init                                   output.o
ieee1394_init                                     output.o
inet_chksum                                       output.o
inet_chksum_pbuf                                  output.o
inet_chksum_pseudo                                output.o
inet_chksum_pseudo_partial                        output.o
init_hframelist                                   output.o
initfunc_init                                     output.o
int1a_TCG_CompactHashLogExtendEvent               output.o
int1a_TCG_HashAll                                 output.o
int1a_TCG_HashLogEvent                            output.o
int1a_TCG_HashLogExtendEvent                      output.o
int1a_TCG_PassThroughToTPM                        output.o
int1a_TCG_StatusCheck                             output.o
int1a_TCG_TSS                                     output.o
int_callfunc                                      output.o
int_exceptionHandler                              output.o
int_fatal                                         output.o
int_handler                                       output.o
int_init_ap                                       output.o
int_rsa_verify                                    output.o
iodom_init                                        output.o
iommu_detected                                    output.o
iommu_setup                                       output.o
ip4_addr_isbroadcast                              output.o
ip4_addr_netmask_valid                            output.o
ip_addr_any                                       output.o
ip_addr_broadcast                                 output.o
ip_frag                                           output.o
ip_input                                          output.o
ip_main_init                                      output.o
ip_main_input                                     output.o
ip_main_task                                      output.o
ip_output                                         output.o
ip_output_if                                      output.o
ip_reass                                          output.o
ip_reass_tmr                                      output.o
ip_route                                          output.o
ip_sys_now                                        output.o
ipaddr_addr                                       output.o
ipaddr_aton                                       output.o
ipaddr_ntoa                                       output.o
ipaddr_ntoa_r                                     output.o
ipchecksum                                        output.o
keyboard_flush                                    output.o
keyboard_reset                                    output.o
level_add_node                                    output.o
level_find_node                                   output.o
lh_delete                                         output.o
lh_doall                                          output.o
lh_doall_arg                                      output.o
lh_free                                           output.o
lh_insert                                         output.o
lh_new                                            output.o
lh_num_items                                      output.o
lh_retrieve                                       output.o
lh_strhash                                        output.o
lh_version                                        output.o
libInitFlag                                       output.o
load_bootsector                                   output.o
load_minios                                       output.o
load_new_vcpu                                     output.o
localapic_change_base_msr                         output.o
localapic_delayed_ap_start                        output.o
localapic_mmio_register                           output.o
localapic_wait_for_sipi                           output.o
localapic_x2apic_icr                              output.o
lwip_htonl                                        output.o
lwip_htons                                        output.o
lwip_init                                         output.o
lwip_ntohl                                        output.o
lwip_ntohs                                        output.o
mapmem                                            output.o
mapmem_gphys                                      output.o
mapmem_hphys                                      output.o
matched_drhd_u                                    output.o
md4_block_data_order                              output.o
md5_block_data_order                              output.o
mem_calloc                                        output.o
mem_free                                          output.o
mem_init                                          output.o
mem_malloc                                        output.o
mem_trim                                          output.o
memcmp                                            output.o
memcpy                                            output.o
memorysize                                        output.o
memp_free                                         output.o
memp_init                                         output.o
memp_malloc                                       output.o
mempool_allocmem                                  output.o
mempool_free                                      output.o
mempool_freemem                                   output.o
mempool_new                                       output.o
memset                                            output.o
message_exitcode                                  output.o
message_exitreason                                output.o
mm_flush_wb_cache                                 output.o
mm_force_unlock                                   output.o
mm_free_panicmem                                  output.o
mm_get_panicmem                                   output.o
mm_process_alloc                                  output.o
mm_process_free                                   output.o
mm_process_map_alloc                              output.o
mm_process_map_shared                             output.o
mm_process_map_shared_physpage                    output.o
mm_process_map_stack                              output.o
mm_process_switch                                 output.o
mm_process_unmap                                  output.o
mm_process_unmap_stack                            output.o
mm_process_unmapall                               output.o
mmio_access_memory                                output.o
mmio_access_page                                  output.o
mmio_lock                                         output.o
mmio_range                                        output.o
mmio_register                                     output.o
mmio_register_unlocked                            output.o
mmio_unlock                                       output.o
mmio_unregister                                   output.o
move_vmm_area32                                   output.o
move_vmm_area64                                   output.o
mpudiv_128_32                                     output.o
mpumul_64_64                                      output.o
msg_findname                                      output.o
msg_register                                      output.o
msg_unregister                                    output.o
msg_unregister2                                   output.o
msg_unregisterall                                 output.o
msg_usb_bulk_read                                 output.o
msg_usb_bulk_write                                output.o
msg_usb_claim_interface                           output.o
msg_usb_close                                     output.o
msg_usb_control_msg                               output.o
msg_usb_find_busses                               output.o
msg_usb_find_devices                              output.o
msg_usb_get_busses                                output.o
msg_usb_get_string_simple                         output.o
msg_usb_init                                      output.o
msg_usb_open                                      output.o
msg_usb_release_interface                         output.o
msg_usb_reset                                     output.o
msg_vpn_FreeTimer                                 output.o
msg_vpn_GetCurrentCpuId                           output.o
msg_vpn_GetPhysicalNicInfo                        output.o
msg_vpn_GetTickCount                              output.o
msg_vpn_GetVirtualNicInfo                         output.o
msg_vpn_NewTimer                                  output.o
msg_vpn_SendPhysicalNic                           output.o
msg_vpn_SendVirtualNic                            output.o
msg_vpn_SetPhysicalNicRecvCallback                output.o
msg_vpn_SetTimer                                  output.o
msg_vpn_SetVirtualNicRecvCallback                 output.o
msg_vpn_ic_rsa_sign                               output.o
msgclose                                          output.o
msgopen                                           output.o
msgpremapbuf                                      output.o
msgregister                                       output.o
msgsendbuf                                        output.o
msgsenddesc                                       output.o
msgsendint                                        output.o
msgsetfunc                                        output.o
msgunregister                                     output.o
msr_pass_hook_x2apic_icr                          output.o
mszReaders                                        output.o
name_cmp                                          output.o
net_init                                          output.o
net_main_get_mac_address                          output.o
net_main_poll                                     output.o
net_main_send                                     output.o
net_main_set_recv_arg                             output.o
net_main_task_add                                 output.o
net_new_nic                                       output.o
net_premap_recvbuf                                output.o
net_register                                      output.o
net_start                                         output.o
netif_add                                         output.o
netif_default                                     output.o
netif_find                                        output.o
netif_init                                        output.o
netif_list                                        output.o
netif_remove                                      output.o
netif_set_addr                                    output.o
netif_set_default                                 output.o
netif_set_down                                    output.o
netif_set_gw                                      output.o
netif_set_ipaddr                                  output.o
netif_set_link_down                               output.o
netif_set_link_up                                 output.o
netif_set_netmask                                 output.o
netif_set_up                                      output.o
newprocess                                        output.o
num_dom                                           output.o
num_of_available_pages                            output.o
num_of_processors                                 output.o
o2i_ECPublicKey                                   output.o
obj_cleanup_defer                                 output.o
own_process64_msrs                                output.o
packet_handle_command                             output.o
packet_handle_config                              output.o
packet_handle_invalid                             output.o
packet_handle_nondata                             output.o
packet_handle_rw                                  output.o
packet_handle_through                             output.o
panic                                             output.o
panic_oom                                         output.o
panic_test                                        output.o
panic_wakeup_all                                  output.o
parse_dmar_bios_report                            output.o
pbuf_alloc                                        output.o
pbuf_alloced_custom                               output.o
pbuf_cat                                          output.o
pbuf_chain                                        output.o
pbuf_clen                                         output.o
pbuf_coalesce                                     output.o
pbuf_copy                                         output.o
pbuf_copy_partial                                 output.o
pbuf_dechain                                      output.o
pbuf_free                                         output.o
pbuf_free_ooseq                                   output.o
pbuf_free_ooseq_pending                           output.o
pbuf_get_at                                       output.o
pbuf_header                                       output.o
pbuf_memcmp                                       output.o
pbuf_memfind                                      output.o
pbuf_realloc                                      output.o
pbuf_ref                                          output.o
pbuf_strstr                                       output.o
pbuf_take                                         output.o
pci_append_device                                 output.o
pci_conceal_config_read                           output.o
pci_conceal_config_write                          output.o
pci_conceal_new                                   output.o
pci_config_addr_handler                           output.o
pci_config_data_handler                           output.o
pci_config_mmio_data_head                         output.o
pci_config_mmio_handler                           output.o
pci_device_list_head                              output.o
pci_driver_list_head                              output.o
pci_driver_option_get_bool                        output.o
pci_driver_option_get_int                         output.o
pci_dump_pci_dev_list                             output.o
pci_find_driver_by_token                          output.o
pci_find_driver_for_device                        output.o
pci_get_bar_info                                  output.o
pci_get_bridge_from_bus_no                        output.o
pci_get_modifying_bar_info                        output.o
pci_handle_default_config_read                    output.o
pci_handle_default_config_write                   output.o
pci_match                                         output.o
pci_match_add_compat                              output.o
pci_match_find_driver                             output.o
pci_monitor_config_read                           output.o
pci_monitor_config_write                          output.o
pci_monitor_new                                   output.o
pci_msi_disable                                   output.o
pci_msi_enable                                    output.o
pci_msi_init                                      output.o
pci_possible_new_device                           output.o
pci_print_device                                  output.o
pci_read_config_data16                            output.o
pci_read_config_data32                            output.o
pci_read_config_data8                             output.o
pci_read_config_data_port                         output.o
pci_read_config_mmio                              output.o
pci_readwrite_config_mmio                         output.o
pci_reconnect_device                              output.o
pci_register_driver                               output.o
pci_restore_config_addr                           output.o
pci_save_config_addr                              output.o
pci_set_bridge_fake_command                       output.o
pci_set_bridge_from_bus_no                        output.o
pci_set_bridge_io                                 output.o
pci_write_config_data16                           output.o
pci_write_config_data32                           output.o
pci_write_config_data8                            output.o
pci_write_config_data_port                        output.o
pci_write_config_mmio                             output.o
pcpu_default                                      output.o
pcpu_init                                         output.o
pcpu_list_add                                     output.o
pcpu_list_foreach                                 output.o
pem_check_suffix                                  output.o
phys_in_vmm                                       output.o
phys_to_virt                                      output.o
pmap_autoalloc                                    output.o
pmap_clear                                        output.o
pmap_close                                        output.o
pmap_dump                                         output.o
pmap_getreadlevel                                 output.o
pmap_open_guest                                   output.o
pmap_open_vmm                                     output.o
pmap_pointer                                      output.o
pmap_read                                         output.o
pmap_seek                                         output.o
pmap_setlevel                                     output.o
pmap_write                                        output.o
policy_cache_find_data                            output.o
policy_cache_free                                 output.o
policy_cache_set                                  output.o
policy_cache_set_mapping                          output.o
policy_data_free                                  output.o
policy_data_new                                   output.o
policy_node_cmp_new                               output.o
policy_node_free                                  output.o
policy_node_match                                 output.o
prepare_for_sleep                                 output.o
printexitcode                                     output.o
printexitreason                                   output.o
printf                                            output.o
pro100_alloc_page                                 output.o
pro100_alloc_recv_buffer                          output.o
pro100_beep                                       output.o
pro100_config_read                                output.o
pro100_config_write                               output.o
pro100_exec_cu_op                                 output.o
pro100_flush                                      output.o
pro100_free_page                                  output.o
pro100_generate_int                               output.o
pro100_get_ctx                                    output.o
pro100_get_cu_command_string                      output.o
pro100_get_int_bit_string                         output.o
pro100_get_op_size                                output.o
pro100_get_ru_command_string                      output.o
pro100_get_stat_ack_string                        output.o
pro100_hook_read                                  output.o
pro100_hook_write                                 output.o
pro100_init                                       output.o
pro100_init_cu_base_addr                          output.o
pro100_init_recv_buffer                           output.o
pro100_init_ru_base_addr                          output.o
pro100_init_vpn_client                            output.o
pro100_io_handler                                 output.o
pro100_mem_read                                   output.o
pro100_mem_write                                  output.o
pro100_mm_handler                                 output.o
pro100_new                                        output.o
pro100_poll_ru                                    output.o
pro100_proc_guest_op                              output.o
pro100_read                                       output.o
pro100_read_send_packet                           output.o
pro100_send_packet_to_line                        output.o
pro100_sleep                                      output.o
pro100_wait_cu_ru_accepable                       output.o
pro100_write                                      output.o
pro100_write_recv_packet                          output.o
process_kill                                      output.o
process_syscall                                   output.o
processuser_no_sysenter                           output.o
processuser_syscall                               output.o
processuser_sysenter                              output.o
prohibit_iccard_init                              output.o
ps2_locked                                        output.o
putchar                                           output.o
putchar_set_func                                  output.o
ram_heap                                          output.o
rand_ssleay_meth                                  output.o
raw_bind                                          output.o
raw_connect                                       output.o
raw_input                                         output.o
raw_new                                           output.o
raw_recv                                          output.o
raw_remove                                        output.o
raw_send                                          output.o
raw_sendto                                        output.o
read_gphys_b                                      output.o
read_gphys_l                                      output.o
read_gphys_q                                      output.o
read_gphys_w                                      output.o
read_hphys_b                                      output.o
read_hphys_l                                      output.o
read_hphys_q                                      output.o
read_hphys_w                                      output.o
read_linearaddr_b                                 output.o
read_linearaddr_l                                 output.o
read_linearaddr_q                                 output.o
read_linearaddr_tss                               output.o
read_linearaddr_w                                 output.o
readerState                                       output.o
readerTracker                                     output.o
realloc                                           output.o
reboot_test                                       output.o
register_status_callback                          output.o
resume_vm                                         output.o
ret_to_user32                                     output.o
ret_to_user64                                     output.o
ripemd160_block_data_order                        output.o
rsa_asn1_meths                                    output.o
rsa_pkey_meth                                     output.o
rt                                                output.o
s2i_ASN1_INTEGER                                  output.o
s2i_ASN1_OCTET_STRING                             output.o
sReaderContext                                    output.o
savemsr_index                                     output.o
savemsr_load                                      output.o
savemsr_save                                      output.o
scan_gframelist                                   output.o
schedule                                          output.o
security_storage_check_lba                        output.o
segment_init_ap                                   output.o
segment_wakeup                                    output.o
serial_getDebugChar                               output.o
serial_init_iohook                                output.o
serial_putDebugChar                               output.o
serial_putchar                                    output.o
sessionTable                                      output.o
set_int_handler                                   output.o
set_iofunc                                        output.o
setkbdled                                         output.o
shadow_and_activate_urb                           output.o
sig_app                                           output.o
sigx_app                                          output.o
sk_delete                                         output.o
sk_delete_ptr                                     output.o
sk_dup                                            output.o
sk_find                                           output.o
sk_find_ex                                        output.o
sk_free                                           output.o
sk_insert                                         output.o
sk_is_sorted                                      output.o
sk_new                                            output.o
sk_new_null                                       output.o
sk_num                                            output.o
sk_pop                                            output.o
sk_pop_free                                       output.o
sk_push                                           output.o
sk_set                                            output.o
sk_set_cmp_func                                   output.o
sk_shift                                          output.o
sk_sort                                           output.o
sk_unshift                                        output.o
sk_value                                          output.o
sk_zero                                           output.o
sleep_set_timer_counter                           output.o
slotFlag                                          output.o
slotTable                                         output.o
snprintf                                          output.o
start_all_processors                              output.o
storage_free                                      output.o
storage_get_num_hc                                output.o
storage_handle_sectors                            output.o
storage_hc_close                                  output.o
storage_hc_dev_atacommand                         output.o
storage_hc_dev_close                              output.o
storage_hc_dev_open                               output.o
storage_hc_hook_register                          output.o
storage_hc_hook_unregister                        output.o
storage_hc_open                                   output.o
storage_hc_register                               output.o
storage_hc_scandev                                output.o
storage_hc_unregister                             output.o
storage_init                                      output.o
storage_io_aget_size                              output.o
storage_io_aread                                  output.o
storage_io_awrite                                 output.o
storage_io_deinit                                 output.o
storage_io_get_num_devices                        output.o
storage_io_init                                   output.o
storage_new                                       output.o
storage_premap_buf                                output.o
storage_premap_handle_sectors                     output.o
strcmp                                            output.o
string_to_hex                                     output.o
strlen                                            output.o
strtol                                            output.o
svm_available                                     output.o
svm_enable_resume                                 output.o
svm_init                                          output.o
svm_init_signal                                   output.o
svm_ioio                                          output.o
svm_iopass                                        output.o
svm_msr_update_lma                                output.o
svm_msrpass                                       output.o
svm_np_clear_all                                  output.o
svm_np_extern_mapsearch                           output.o
svm_np_init                                       output.o
svm_np_map_1mb                                    output.o
svm_np_pagefault                                  output.o
svm_np_tlbflush                                   output.o
svm_np_updatecr3                                  output.o
svm_paging_apply_fixed_cr0                        output.o
svm_paging_apply_fixed_cr4                        output.o
svm_paging_clear_all                              output.o
svm_paging_extern_flush_tlb_entry                 output.o
svm_paging_flush_guest_tlb                        output.o
svm_paging_get_gpat                               output.o
svm_paging_init                                   output.o
svm_paging_invalidate                             output.o
svm_paging_map_1mb                                output.o
svm_paging_npf                                    output.o
svm_paging_pagefault                              output.o
svm_paging_pg_change                              output.o
svm_paging_set_gpat                               output.o
svm_paging_spt_setcr3                             output.o
svm_paging_start                                  output.o
svm_paging_tlbflush                               output.o
svm_paging_updatecr3                              output.o
svm_panic_dump                                    output.o
svm_read_control_reg                              output.o
svm_read_flags                                    output.o
svm_read_gdtr                                     output.o
svm_read_general_reg                              output.o
svm_read_idtr                                     output.o
svm_read_ip                                       output.o
svm_read_msr                                      output.o
svm_read_sreg_acr                                 output.o
svm_read_sreg_base                                output.o
svm_read_sreg_limit                               output.o
svm_read_sreg_sel                                 output.o
svm_reset                                         output.o
svm_resume                                        output.o
svm_start_vm                                      output.o
svm_vmexit                                        output.o
svm_vminit                                        output.o
svm_write_control_reg                             output.o
svm_write_flags                                   output.o
svm_write_gdtr                                    output.o
svm_write_general_reg                             output.o
svm_write_idtr                                    output.o
svm_write_ip                                      output.o
svm_write_msr                                     output.o
svm_write_realmode_seg                            output.o
svm_writing_sreg                                  output.o
sx_handler                                        output.o
sym_to_phys                                       output.o
sync_all_processors                               output.o
sys_check_timeouts                                output.o
sys_exitprocess                                   output.o
sys_msgclose                                      output.o
sys_msgopen                                       output.o
sys_msgregister                                   output.o
sys_msgret                                        output.o
sys_msgsendbuf                                    output.o
sys_msgsenddesc                                   output.o
sys_msgsendint                                    output.o
sys_msgsetfunc                                    output.o
sys_msgunregister                                 output.o
sys_newprocess                                    output.o
sys_now                                           output.o
sys_restart_timeouts                              output.o
sys_timeout                                       output.o
sys_timeouts_init                                 output.o
sys_untimeout                                     output.o
syscall_entry_lret                                output.o
syscall_entry_sysexit                             output.o
syscall_entry_sysret64                            output.o
tcg_measure                                       output.o
tcp_abandon                                       output.o
tcp_abort                                         output.o
tcp_accept                                        output.o
tcp_active_pcbs                                   output.o
tcp_active_pcbs_changed                           output.o
tcp_alloc                                         output.o
tcp_arg                                           output.o
tcp_backoff                                       output.o
tcp_bind                                          output.o
tcp_bound_pcbs                                    output.o
tcp_close                                         output.o
tcp_connect                                       output.o
tcp_debug_state_str                               output.o
tcp_eff_send_mss                                  output.o
tcp_enqueue_flags                                 output.o
tcp_err                                           output.o
tcp_fasttmr                                       output.o
tcp_init                                          output.o
tcp_input                                         output.o
tcp_input_pcb                                     output.o
tcp_keepalive                                     output.o
tcp_listen_pcbs                                   output.o
tcp_listen_with_backlog                           output.o
tcp_new                                           output.o
tcp_next_iss                                      output.o
tcp_output                                        output.o
tcp_pcb_lists                                     output.o
tcp_pcb_purge                                     output.o
tcp_pcb_remove                                    output.o
tcp_persist_backoff                               output.o
tcp_poll                                          output.o
tcp_process_refused_data                          output.o
tcp_recv                                          output.o
tcp_recv_null                                     output.o
tcp_recved                                        output.o
tcp_rexmit                                        output.o
tcp_rexmit_fast                                   output.o
tcp_rexmit_rto                                    output.o
tcp_rst                                           output.o
tcp_seg_copy                                      output.o
tcp_seg_free                                      output.o
tcp_segs_free                                     output.o
tcp_send_empty_ack                                output.o
tcp_send_fin                                      output.o
tcp_sent                                          output.o
tcp_setprio                                       output.o
tcp_shutdown                                      output.o
tcp_slowtmr                                       output.o
tcp_state_str                                     output.o
tcp_ticks                                         output.o
tcp_timer_needed                                  output.o
tcp_tmp_pcb                                       output.o
tcp_tmr                                           output.o
tcp_tw_pcbs                                       output.o
tcp_update_rcv_ann_wnd                            output.o
tcp_write                                         output.o
tcp_zero_window_probe                             output.o
tcpip_begin                                       output.o
thread_exit                                       output.o
thread_gettid                                     output.o
thread_new                                        output.o
thread_start0                                     output.o
thread_start1                                     output.o
thread_switch                                     output.o
thread_wakeup                                     output.o
thread_will_stop                                  output.o
timer_free                                        output.o
timer_new                                         output.o
timer_set                                         output.o
tree_find_sk                                      output.o
tty_get_logbuf_info                               output.o
tty_init_iohook                                   output.o
tty_putchar                                       output.o
tty_udp_register                                  output.o
ttylog_copy_from_panicmem                         output.o
ttylog_copy_to_panicmem                           output.o
ttylog_stop                                       output.o
udp_bind                                          output.o
udp_connect                                       output.o
udp_disconnect                                    output.o
udp_init                                          output.o
udp_input                                         output.o
udp_new                                           output.o
udp_pcbs                                          output.o
udp_recv                                          output.o
udp_remove                                        output.o
udp_send                                          output.o
udp_sendto                                        output.o
udp_sendto_if                                     output.o
uefi_acpi_20_table                                output.o
uefi_acpi_table                                   output.o
uefi_allocate_pages                               output.o
uefi_booted                                       output.o
uefi_conin                                        output.o
uefi_conin_read_key_stroke                        output.o
uefi_conout                                       output.o
uefi_conout_output_string                         output.o
uefi_entry_call                                   output.o
uefi_entry_pcpy                                   output.o
uefi_entry_ret_addr                               output.o
uefi_entry_rsp                                    output.o
uefi_entry_start                                  output.o
uefi_entry_virttophys                             output.o
uefi_free_pages                                   output.o
uefi_get_memory_map                               output.o
uefi_init                                         output.o
uefi_init_get_vmmsize                             output.o
uefi_memory_map_data                              output.o
uefi_memory_map_descsize                          output.o
uefi_memory_map_size                              output.o
uefi_mmio_space                                   output.o
uefi_wait_for_event                               output.o
uhci_activate_urb                                 output.o
uhci_check_advance                                output.o
uhci_check_urb_advance                            output.o
uhci_create_urb                                   output.o
uhci_current_frame_number                         output.o
uhci_deactivate_urb                               output.o
uhci_destroy_unlinked_urbs                        output.o
uhci_destroy_urb                                  output.o
uhci_dump_all                                     output.o
uhci_error_status_string                          output.o
uhci_framelist_monitor                            output.o
uhci_init                                         output.o
uhci_monitor_boost_hc                             output.o
uhci_reactivate_urb                               output.o
uhci_shadow_buffer                                output.o
uhci_submit_bulk                                  output.o
uhci_submit_control                               output.o
uhci_submit_interrupt                             output.o
unmapmem                                          output.o
update_mtrr_and_pat                               output.o
usb_bulk_read                                     output.o
usb_bulk_write                                    output.o
usb_busses_head                                   output.o
usb_claim_interface                               output.o
usb_clear_halt                                    output.o
usb_close                                         output.o
usb_control_msg                                   output.o
usb_find_busses                                   output.o
usb_find_devices                                  output.o
usb_get_bus                                       output.o
usb_get_busses                                    output.o
usb_get_descriptor                                output.o
usb_get_descriptor_by_endpoint                    output.o
usb_get_descriptor_early                          output.o
usb_get_string                                    output.o
usb_get_string_simple                             output.o
usb_hc_list_head                                  output.o
usb_hook_process                                  output.o
usb_hook_register                                 output.o
usb_hook_unregister                               output.o
usb_init                                          output.o
usb_init_device_monitor                           output.o
usb_interrupt_read                                output.o
usb_interrupt_write                               output.o
usb_log_level                                     output.o
usb_new_dev_handle                                output.o
usb_open                                          output.o
usb_register_host                                 output.o
usb_release_interface                             output.o
usb_reset                                         output.o
usb_resetep                                       output.o
usb_sc_lock                                       output.o
usb_sc_unlock                                     output.o
usb_set_altinterface                              output.o
usb_set_configuration                             output.o
usb_set_debug                                     output.o
usb_unregister_devices                            output.o
usbccid_init_handle                               output.o
usbhid_init_handle                                output.o
usbhub_init_handle                                output.o
usbmsc_init_handle                                output.o
use_pae                                           output.o
usleep                                            output.o
v2i_ASN1_BIT_STRING                               output.o
v2i_GENERAL_NAME                                  output.o
v2i_GENERAL_NAMES                                 output.o
v2i_GENERAL_NAME_ex                               output.o
v3_akey_id                                        output.o
v3_alt                                            output.o
v3_bcons                                          output.o
v3_cpols                                          output.o
v3_crl_hold                                       output.o
v3_crl_invdate                                    output.o
v3_crl_num                                        output.o
v3_crl_reason                                     output.o
v3_crld                                           output.o
v3_delta_crl                                      output.o
v3_ext_ku                                         output.o
v3_freshest_crl                                   output.o
v3_idp                                            output.o
v3_info                                           output.o
v3_inhibit_anyp                                   output.o
v3_key_usage                                      output.o
v3_name_constraints                               output.o
v3_ns_ia5_list                                    output.o
v3_nscert                                         output.o
v3_ocsp_accresp                                   output.o
v3_ocsp_acutoff                                   output.o
v3_ocsp_crlid                                     output.o
v3_ocsp_nocheck                                   output.o
v3_ocsp_nonce                                     output.o
v3_ocsp_serviceloc                                output.o
v3_pci                                            output.o
v3_pkey_usage_period                              output.o
v3_policy_constraints                             output.o
v3_policy_mappings                                output.o
v3_sinfo                                          output.o
v3_skey_id                                        output.o
v3_sxnet                                          output.o
vcpu_list_foreach                                 output.o
vga_fill_rect                                     output.o
vga_get_screen_size                               output.o
vga_is_ready                                      output.o
vga_register                                      output.o
vga_transfer_image                                output.o
virtio_intr                                       output.o
virtio_net_config_read                            output.o
virtio_net_config_write                           output.o
virtio_net_init                                   output.o
virtio_net_msix                                   output.o
virtio_net_set_msix                               output.o
virtio_net_set_multifunction                      output.o
vmctl_svm_init                                    output.o
vmctl_vt_init                                     output.o
vmm_base_cr3                                      output.o
vmm_main                                          output.o
vmm_start_inf                                     output.o
vmm_start_phys                                    output.o
vmm_term_inf                                      output.o
vmmcall                                           output.o
vmmcall_boot_continue                             output.o
vmmcall_boot_enable                               output.o
vmmcall_init                                      output.o
vmmcall_register                                  output.o
vmmsize                                           output.o
vpn_FreeTimer                                     output.o
vpn_GetCurrentCpuId                               output.o
vpn_GetPhysicalNicInfo                            output.o
vpn_GetTickCount                                  output.o
vpn_GetVirtualNicInfo                             output.o
vpn_NewTimer                                      output.o
vpn_SendPhysicalNic                               output.o
vpn_SendVirtualNic                                output.o
vpn_SetPhysicalNicRecvCallback                    output.o
vpn_SetTimer                                      output.o
vpn_SetVirtualNicRecvCallback                     output.o
vpn_ic_rsa_sign                                   output.o
vpn_start                                         output.o
vpn_user_init                                     output.o
vprintf                                           output.o
vramwrite_clearscreen                             output.o
vramwrite_exit_global                             output.o
vramwrite_get_cursor_pos                          output.o
vramwrite_init_global                             output.o
vramwrite_mark1                                   output.o
vramwrite_mark2                                   output.o
vramwrite_mark3                                   output.o
vramwrite_putchar                                 output.o
vramwrite_restore_cursor                          output.o
vramwrite_save_and_move_cursor                    output.o
vsnprintf                                         output.o
vt__vmx_init                                      output.o
vt__vmxon                                         output.o
vt_add_guest_msr                                  output.o
vt_available                                      output.o
vt_enable_resume                                  output.o
vt_ept_clear_all                                  output.o
vt_ept_extern_mapsearch                           output.o
vt_ept_init                                       output.o
vt_ept_map_1mb                                    output.o
vt_ept_tlbflush                                   output.o
vt_ept_updatecr3                                  output.o
vt_ept_violation                                  output.o
vt_generate_external_int                          output.o
vt_generate_pagefault                             output.o
vt_get_current_regs_in_vmcs                       output.o
vt_get_vmcs_regs_in_vmcs                          output.o
vt_init                                           output.o
vt_init_signal                                    output.o
vt_io                                             output.o
vt_iopass                                         output.o
vt_msr_init                                       output.o
vt_msr_load_process64_msrs                        output.o
vt_msr_own_process_msrs                           output.o
vt_msr_update_lma                                 output.o
vt_msrpass                                        output.o
vt_paging_apply_fixed_cr0                         output.o
vt_paging_apply_fixed_cr4                         output.o
vt_paging_clear_all                               output.o
vt_paging_extern_flush_tlb_entry                  output.o
vt_paging_flush_guest_tlb                         output.o
vt_paging_get_gpat                                output.o
vt_paging_init                                    output.o
vt_paging_invalidate                              output.o
vt_paging_map_1mb                                 output.o
vt_paging_npf                                     output.o
vt_paging_pagefault                               output.o
vt_paging_pg_change                               output.o
vt_paging_set_gpat                                output.o
vt_paging_spt_setcr3                              output.o
vt_paging_start                                   output.o
vt_paging_tlbflush                                output.o
vt_paging_updatecr3                               output.o
vt_panic_dump                                     output.o
vt_read_control_reg                               output.o
vt_read_flags                                     output.o
vt_read_gdtr                                      output.o
vt_read_general_reg                               output.o
vt_read_guest_msr                                 output.o
vt_read_idtr                                      output.o
vt_read_ip                                        output.o
vt_read_msr                                       output.o
vt_read_sreg_acr                                  output.o
vt_read_sreg_base                                 output.o
vt_read_sreg_limit                                output.o
vt_read_sreg_sel                                  output.o
vt_reset                                          output.o
vt_resume                                         output.o
vt_start_vm                                       output.o
vt_update_exception_bmp                           output.o
vt_update_exint                                   output.o
vt_vmexit                                         output.o
vt_vminit                                         output.o
vt_vmptrld                                        output.o
vt_write_control_reg                              output.o
vt_write_flags                                    output.o
vt_write_gdtr                                     output.o
vt_write_general_reg                              output.o
vt_write_guest_msr                                output.o
vt_write_idtr                                     output.o
vt_write_ip                                       output.o
vt_write_msr                                      output.o
vt_write_realmode_seg                             output.o
vt_writing_sreg                                   output.o
waitcycles                                        output.o
wakeup_cont                                       output.o
wakeup_entry_addr                                 output.o
wakeup_entry_cr0                                  output.o
wakeup_entry_cr3                                  output.o
wakeup_entry_cr4                                  output.o
wakeup_entry_end                                  output.o
wakeup_entry_gdtr                                 output.o
wakeup_entry_start                                output.o
wakeup_init                                       output.o
wakeup_main                                       output.o
whirlpool_block                                   output.o
write_gphys_b                                     output.o
write_gphys_l                                     output.o
write_gphys_q                                     output.o
write_gphys_w                                     output.o
write_hphys_b                                     output.o
write_hphys_l                                     output.o
write_hphys_q                                     output.o
write_hphys_w                                     output.o
write_linearaddr_b                                output.o
write_linearaddr_l                                output.o
write_linearaddr_ok_b                             output.o
write_linearaddr_ok_l                             output.o
write_linearaddr_ok_w                             output.o
write_linearaddr_q                                output.o
write_linearaddr_tss                              output.o
write_linearaddr_w                                output.o
x509_name_ff                                      output.o
